; Listing generated by Microsoft (R) Optimizing Compiler Version 19.38.33135.0 

include listing.inc

INCLUDELIB OLDNAMES

PUBLIC	??_C@_04OEBBALID@e?$CL00@			; `string'
PUBLIC	??_C@_0BC@EOODALEL@Unknown?5exception@		; `string'
PUBLIC	??_C@_0BF@KINCDENJ@bad?5array?5new?5length@	; `string'
PUBLIC	??_C@_0BA@JFNIOLAK@string?5too?5long@		; `string'
PUBLIC	??_C@_08EPJLHIJG@bad?5cast@			; `string'
PUBLIC	??_C@_05LAPONLG@false@				; `string'
PUBLIC	??_C@_04LOAJBDKD@true@				; `string'
PUBLIC	??_C@_00CNPNBAHC@@				; `string'
PUBLIC	??_C@_0BB@BPFBMCIH@starts?5none?5test@		; `string'
PUBLIC	??_C@_08PPCHCFBL@?5?$DM?9?5none@		; `string'
PUBLIC	??_C@_0L@KMBNFLMG@?$HL?$HN?5?$DM?9?5none@	; `string'
PUBLIC	??_C@_09ENEMMIOP@?5?$DM?9?5input@		; `string'
PUBLIC	??_C@_0BB@NBBIIIOC@Inputs?5a?5value?3?5@	; `string'
PUBLIC	??_C@_0N@LPFKKEBD@?3AM?3am?3PM?3pm@		; `string'
PUBLIC	??_C@_0BI@CFPLBAOH@invalid?5string?5position@	; `string'
PUBLIC	??_C@_03OJHLLCGB@inf@				; `string'
PUBLIC	??_C@_08OFCDMILK@nan?$CIind?$CJ@		; `string'
PUBLIC	??_C@_03LHCJEHON@nan@				; `string'
PUBLIC	??_C@_09IPFBKMDL@nan?$CIsnan?$CJ@		; `string'
PUBLIC	??_C@_1BK@MHIKGOKE@?$AA?3?$AAA?$AAM?$AA?3?$AAa?$AAm?$AA?3?$AAP?$AAM?$AA?3?$AAp?$AAm@ ; `string'
PUBLIC	??_C@_04CGFJFPFD@none@				; `string'
PUBLIC	??_C@_0CA@EOADLFNL@Unmatched?5?8?$HN?8?5in?5format?5string?4@ ; `string'
PUBLIC	??_C@_0BO@FFAGMLDI@Missing?5?8?$HN?8?5in?5format?5string?4@ ; `string'
PUBLIC	??_C@_0CM@HMOABGNI@Invalid?5encoded?5character?5in?5fo@ ; `string'
PUBLIC	??_C@_04BIJNIPAK@0p?$CL0@			; `string'
PUBLIC	??_C@_0BH@MCHHCMKF@Invalid?5format?5string?4@	; `string'
PUBLIC	??_C@_0BK@NMCHMIGI@Unknown?5format?5specifier?4@ ; `string'
PUBLIC	??_C@_0DB@GIGELLBG@Can?5not?5switch?5from?5manual?5to?5a@ ; `string'
PUBLIC	??_C@_0CM@EFKJINMJ@Format?5specifier?5requires?5numer@ ; `string'
PUBLIC	??_C@_0BM@ONFDPAFF@Invalid?5type?5specification?4@ ; `string'
PUBLIC	??_C@_0CE@OLPMMFCN@Invalid?5presentation?5type?5speci@ ; `string'
PUBLIC	??_C@_0CD@PLBGEFIO@Invalid?5presentation?5type?5for?5b@ ; `string'
PUBLIC	??_C@_0CD@IFHOEGFC@Invalid?5presentation?5type?5for?5c@ ; `string'
PUBLIC	??_C@_0CG@PIIJGCKO@Invalid?5presentation?5type?5for?5i@ ; `string'
PUBLIC	??_C@_0CN@EEOMCCM@Invalid?5presentation?5type?5for?5f@ ; `string'
PUBLIC	??_C@_0CF@MMFFCGKF@Invalid?5presentation?5type?5for?5s@ ; `string'
PUBLIC	??_C@_0CG@LHDOJLDP@Invalid?5presentation?5type?5for?5p@ ; `string'
PUBLIC	??_C@_0DI@JFEOALGI@Modifier?5requires?5an?5integer?5pr@ ; `string'
PUBLIC	??_C@_05JHILFKJA@0e?$CL00@			; `string'
PUBLIC	??_C@_0BD@GHJPJCGO@Number?5is?5too?5big?4@	; `string'
PUBLIC	??_C@_0BL@KNEDAEPA@invalid?5fill?5character?5?8?$HL?8@ ; `string'
PUBLIC	??_C@_0BN@CAABEHAA@Missing?5precision?5specifier?4@ ; `string'
PUBLIC	??_C@_0BJ@FNNNKMGD@Invalid?5fill?5?$CItoo?5long?$CJ?4@ ; `string'
PUBLIC	??_C@_0CO@ILLNLEBH@Precision?5not?5allowed?5for?5this?5@ ; `string'
PUBLIC	??_C@_0DB@FGJJGOLD@Can?5not?5switch?5from?5automatic?5t@ ; `string'
PUBLIC	??_C@_0BJ@FLMOJPKL@Width?5is?5not?5an?5integer?4@ ; `string'
PUBLIC	??_C@_0BA@INGMONDA@Negative?5width?4@		; `string'
PUBLIC	??_C@_0BN@DNNEEKIC@Precision?5is?5not?5an?5integer?4@ ; `string'
PUBLIC	??_C@_0BE@DEGOCOHL@Negative?5precision?4@	; `string'
PUBLIC	??_C@_0BC@JOAOKPFE@Number?5is?5too?5big@	; `string'
PUBLIC	??_C@_0CM@KHNKLFDD@Dynamic?5width?5or?5precision?5inde@ ; `string'
PUBLIC	??_C@_0CC@OGKFJOLL@integral?5cannot?5be?5stored?5in?5ch@ ; `string'
PUBLIC	??_C@_02HDBOMKFI@0b@				; `string'
PUBLIC	??_C@_02OGJKOOPK@0B@				; `string'
PUBLIC	??_C@_02MDDDDAID@0x@				; `string'
PUBLIC	??_C@_02FGLHBECB@0X@				; `string'
PUBLIC	??_C@_01GBGANLPD@0@				; `string'
PUBLIC	??_C@_15NBCMKBBL@?$AA?2?$AAt@			; `string'
PUBLIC	??_C@_02COELENML@?2t@				; `string'
PUBLIC	??_C@_15OOIIBGOA@?$AA?2?$AAn@			; `string'
PUBLIC	??_C@_02JOGGLHBA@?2n@				; `string'
PUBLIC	??_C@_15PEEHPOMH@?$AA?2?$AAr@			; `string'
PUBLIC	??_C@_02HIBBOKEN@?2r@				; `string'
PUBLIC	??_C@_15LEKKCGMK@?$AA?2?$AA?2@			; `string'
PUBLIC	??_C@_02HDBGODGB@?2?2@				; `string'
PUBLIC	??_C@_17HPIFHNPA@?$AA?2?$AAu?$AA?$HL@		; `string'
PUBLIC	??_C@_03MBJBJKHP@?2u?$HL@			; `string'
PUBLIC	??_C@_17MDBLGOCO@?$AA?2?$AAx?$AA?$HL@		; `string'
PUBLIC	??_C@_03MJEJAJCM@?2x?$HL@			; `string'
PUBLIC	??_C@_0BE@JHBJMIJI@Argument?5not?5found?4@	; `string'
PUBLIC	??_C@_0BI@KLAHEKGE@String?5pointer?5is?5null?4@	; `string'
PUBLIC	??_R4?$_Fmt_iterator_buffer@V?$back_insert_iterator@V?$basic_string@DU?$char_traits@D@std@@V?$allocator@D@2@@std@@@std@@DU_Fmt_buffer_traits@2@@std@@6B@ ; std::_Fmt_iterator_buffer<std::back_insert_iterator<std::basic_string<char,std::char_traits<char>,std::allocator<char> > >,char,std::_Fmt_buffer_traits>::`RTTI Complete Object Locator'
PUBLIC	??_R0?AVruntime_error@std@@@8			; std::runtime_error `RTTI Type Descriptor'
PUBLIC	??_R4exception@std@@6B@				; std::exception::`RTTI Complete Object Locator'
PUBLIC	?_Adjustment@?CB@???$__to_chars@D@std@@YA?AU?$pair@PEADW4errc@std@@@1@QEAD0U__floating_decimal_32@1@W4chars_format@1@II@Z@4QBEB ; `std::__to_chars<char>'::`33'::_Adjustment
PUBLIC	??_R2bad_array_new_length@std@@8		; std::bad_array_new_length::`RTTI Base Class Array'
PUBLIC	??_R0?AVbad_alloc@std@@@8			; std::bad_alloc `RTTI Type Descriptor'
PUBLIC	??_R0?AU_Fmt_buffer_traits@std@@@8		; std::_Fmt_buffer_traits `RTTI Type Descriptor'
PUBLIC	??_R3_Fmt_buffer_traits@std@@8			; std::_Fmt_buffer_traits::`RTTI Class Hierarchy Descriptor'
PUBLIC	??_7?$numpunct@D@std@@6B@			; std::numpunct<char>::`vftable'
PUBLIC	??_7format_error@std@@6B@			; std::format_error::`vftable'
PUBLIC	??_R4runtime_error@std@@6B@			; std::runtime_error::`RTTI Complete Object Locator'
PUBLIC	??_R3_Facet_base@std@@8				; std::_Facet_base::`RTTI Class Hierarchy Descriptor'
PUBLIC	??_R1A@?0A@EA@bad_cast@std@@8			; std::bad_cast::`RTTI Base Class Descriptor at (0,-1,0,64)'
PUBLIC	??_R2bad_alloc@std@@8				; std::bad_alloc::`RTTI Base Class Array'
PUBLIC	??_R4format_error@std@@6B@			; std::format_error::`RTTI Complete Object Locator'
PUBLIC	??_R3_Crt_new_delete@std@@8			; std::_Crt_new_delete::`RTTI Class Hierarchy Descriptor'
PUBLIC	??_R1A@?0A@EA@runtime_error@std@@8		; std::runtime_error::`RTTI Base Class Descriptor at (0,-1,0,64)'
PUBLIC	??_R0?AV?$_Fmt_iterator_buffer@V?$back_insert_iterator@V?$basic_string@DU?$char_traits@D@std@@V?$allocator@D@2@@std@@@std@@DU_Fmt_buffer_traits@2@@std@@@8 ; std::_Fmt_iterator_buffer<std::back_insert_iterator<std::basic_string<char,std::char_traits<char>,std::allocator<char> > >,char,std::_Fmt_buffer_traits> `RTTI Type Descriptor'
PUBLIC	_CTA3?AVbad_array_new_length@std@@
PUBLIC	??_7bad_array_new_length@std@@6B@		; std::bad_array_new_length::`vftable'
PUBLIC	??_R1A@?0A@EA@exception@std@@8			; std::exception::`RTTI Base Class Descriptor at (0,-1,0,64)'
PUBLIC	??_R1A@?0A@EA@_Facet_base@std@@8		; std::_Facet_base::`RTTI Base Class Descriptor at (0,-1,0,64)'
PUBLIC	??_R1A@?0A@EA@bad_alloc@std@@8			; std::bad_alloc::`RTTI Base Class Descriptor at (0,-1,0,64)'
PUBLIC	??_R0?AV_Facet_base@std@@@8			; std::_Facet_base `RTTI Type Descriptor'
PUBLIC	??_R0?AV?$_Fmt_buffer@D@std@@@8			; std::_Fmt_buffer<char> `RTTI Type Descriptor'
PUBLIC	??_R1A@?0A@EA@?$_Fmt_buffer@D@std@@8		; std::_Fmt_buffer<char>::`RTTI Base Class Descriptor at (0,-1,0,64)'
PUBLIC	??_R0?AU_Crt_new_delete@std@@@8			; std::_Crt_new_delete `RTTI Type Descriptor'
PUBLIC	??_R17?0A@EA@_Crt_new_delete@std@@8		; std::_Crt_new_delete::`RTTI Base Class Descriptor at (8,-1,0,64)'
PUBLIC	_CTA2?AVbad_cast@std@@
PUBLIC	??_R0?AV?$numpunct@D@std@@@8			; std::numpunct<char> `RTTI Type Descriptor'
PUBLIC	?_Adjustment@?CB@???$__to_chars@D@std@@YA?AU?$pair@PEADW4errc@std@@@1@QEAD0U__floating_decimal_64@1@W4chars_format@1@N@Z@4QBEB ; `std::__to_chars<char>'::`33'::_Adjustment
PUBLIC	_CT??_R0?AVformat_error@std@@@8??0format_error@std@@QEAA@AEBV01@@Z24
PUBLIC	??_7bad_alloc@std@@6B@				; std::bad_alloc::`vftable'
PUBLIC	??_R2bad_cast@std@@8				; std::bad_cast::`RTTI Base Class Array'
PUBLIC	??_R2exception@std@@8				; std::exception::`RTTI Base Class Array'
PUBLIC	??_7bad_cast@std@@6B@				; std::bad_cast::`vftable'
PUBLIC	??_R3format_error@std@@8			; std::format_error::`RTTI Class Hierarchy Descriptor'
PUBLIC	??_R1A@?0A@EA@facet@locale@std@@8		; std::locale::facet::`RTTI Base Class Descriptor at (0,-1,0,64)'
PUBLIC	??_R0?AVbad_cast@std@@@8			; std::bad_cast `RTTI Type Descriptor'
PUBLIC	_TI2?AVbad_cast@std@@
PUBLIC	??_7?$_Fmt_iterator_buffer@V?$back_insert_iterator@V?$basic_string@DU?$char_traits@D@std@@V?$allocator@D@2@@std@@@std@@DU_Fmt_buffer_traits@2@@std@@6B@ ; std::_Fmt_iterator_buffer<std::back_insert_iterator<std::basic_string<char,std::char_traits<char>,std::allocator<char> > >,char,std::_Fmt_buffer_traits>::`vftable'
PUBLIC	??_7exception@std@@6B@				; std::exception::`vftable'
PUBLIC	??_R3?$_Fmt_iterator_buffer@V?$back_insert_iterator@V?$basic_string@DU?$char_traits@D@std@@V?$allocator@D@2@@std@@@std@@DU_Fmt_buffer_traits@2@@std@@8 ; std::_Fmt_iterator_buffer<std::back_insert_iterator<std::basic_string<char,std::char_traits<char>,std::allocator<char> > >,char,std::_Fmt_buffer_traits>::`RTTI Class Hierarchy Descriptor'
PUBLIC	??_R1A@?0A@EA@?$_Fmt_iterator_buffer@V?$back_insert_iterator@V?$basic_string@DU?$char_traits@D@std@@V?$allocator@D@2@@std@@@std@@DU_Fmt_buffer_traits@2@@std@@8 ; std::_Fmt_iterator_buffer<std::back_insert_iterator<std::basic_string<char,std::char_traits<char>,std::allocator<char> > >,char,std::_Fmt_buffer_traits>::`RTTI Base Class Descriptor at (0,-1,0,64)'
PUBLIC	??_R3exception@std@@8				; std::exception::`RTTI Class Hierarchy Descriptor'
PUBLIC	_CT??_R0?AVbad_array_new_length@std@@@8??0bad_array_new_length@std@@QEAA@AEBV01@@Z24
PUBLIC	??_7runtime_error@std@@6B@			; std::runtime_error::`vftable'
PUBLIC	?_Max_shifted_mantissa@?DC@???$__to_chars@D@std@@YA?AU?$pair@PEADW4errc@std@@@1@QEAD0U__floating_decimal_64@1@W4chars_format@1@N@Z@4QB_KB ; `std::__to_chars<char>'::`50'::_Max_shifted_mantissa
PUBLIC	??_R2?$numpunct@D@std@@8			; std::numpunct<char>::`RTTI Base Class Array'
PUBLIC	??_R0?AVfacet@locale@std@@@8			; std::locale::facet `RTTI Type Descriptor'
PUBLIC	??_R0?AVformat_error@std@@@8			; std::format_error `RTTI Type Descriptor'
PUBLIC	?_Max_shifted_mantissa@?DC@???$__to_chars@D@std@@YA?AU?$pair@PEADW4errc@std@@@1@QEAD0U__floating_decimal_32@1@W4chars_format@1@II@Z@4QBIB ; `std::__to_chars<char>'::`50'::_Max_shifted_mantissa
PUBLIC	??_R3facet@locale@std@@8			; std::locale::facet::`RTTI Class Hierarchy Descriptor'
PUBLIC	??_R4?$_Fmt_buffer@D@std@@6B@			; std::_Fmt_buffer<char>::`RTTI Complete Object Locator'
PUBLIC	?_Fake_alloc@std@@3U_Fake_allocator@1@B		; std::_Fake_alloc
PUBLIC	?__POW10_OFFSET@std@@3QBGB			; std::__POW10_OFFSET
PUBLIC	?_Max_P@?$_General_precision_tables_2@M@std@@2HB ; std::_General_precision_tables_2<float>::_Max_P
PUBLIC	?copy@ranges@std@@3V_Copy_fn@12@B		; std::ranges::copy
PUBLIC	?begin@_Cpos@ranges@std@@3V_Cpo@_Begin@23@B	; std::ranges::_Cpos::begin
PUBLIC	?_Uend@_Cpos@ranges@std@@3V_Cpo@_Unchecked_end@23@B ; std::ranges::_Cpos::_Uend
PUBLIC	?fill_n@ranges@std@@3V_Fill_n_fn@12@B		; std::ranges::fill_n
PUBLIC	?__POW10_OFFSET_2@std@@3QBGB			; std::__POW10_OFFSET_2
PUBLIC	?_Psave@?$_Facetptr@V?$numpunct@D@std@@@std@@2PEBVfacet@locale@2@EB ; std::_Facetptr<std::numpunct<char> >::_Psave
PUBLIC	??$__DIGIT_TABLE@D@std@@3QBDB			; std::__DIGIT_TABLE<char>
PUBLIC	?default_sentinel@std@@3Udefault_sentinel_t@1@B	; std::default_sentinel
PUBLIC	?__FLOAT_POW5_INV_SPLIT@std@@3QB_KB		; std::__FLOAT_POW5_INV_SPLIT
PUBLIC	?_Max_P@?$_General_precision_tables_2@N@std@@2HB ; std::_General_precision_tables_2<double>::_Max_P
PUBLIC	?__MIN_BLOCK_2@std@@3QBEB			; std::__MIN_BLOCK_2
PUBLIC	?_Charconv_digits@std@@3QBDB			; std::_Charconv_digits
PUBLIC	?__FLOAT_POW5_SPLIT@std@@3QB_KB			; std::__FLOAT_POW5_SPLIT
PUBLIC	?_Grapheme_Extend_property_data@std@@3U?$_Unicode_property_data@W4_Grapheme_Extend_property_values@std@@$0BGL@$00@1@B ; std::_Grapheme_Extend_property_data
PUBLIC	?__printable_property_data@std@@3U?$_Unicode_property_data@W4__printable_property_values@std@@$0CMH@$00@1@B ; std::__printable_property_data
PUBLIC	_CT??_R0?AVruntime_error@std@@@8??0runtime_error@std@@QEAA@AEBV01@@Z24
PUBLIC	??_7?$_Fmt_buffer@D@std@@6B@			; std::_Fmt_buffer<char>::`vftable'
PUBLIC	??_R3bad_cast@std@@8				; std::bad_cast::`RTTI Class Hierarchy Descriptor'
PUBLIC	??_R4bad_alloc@std@@6B@				; std::bad_alloc::`RTTI Complete Object Locator'
PUBLIC	??_R4bad_cast@std@@6B@				; std::bad_cast::`RTTI Complete Object Locator'
PUBLIC	??_R1A@?0A@EA@_Crt_new_delete@std@@8		; std::_Crt_new_delete::`RTTI Base Class Descriptor at (0,-1,0,64)'
PUBLIC	_CT??_R0?AVbad_cast@std@@@8??0bad_cast@std@@QEAA@AEBV01@@Z24
PUBLIC	??_R3bad_array_new_length@std@@8		; std::bad_array_new_length::`RTTI Class Hierarchy Descriptor'
PUBLIC	_CT??_R0?AVbad_alloc@std@@@8??0bad_alloc@std@@QEAA@AEBV01@@Z24
PUBLIC	??_R3bad_alloc@std@@8				; std::bad_alloc::`RTTI Class Hierarchy Descriptor'
PUBLIC	??_R2?$_Fmt_iterator_buffer@V?$back_insert_iterator@V?$basic_string@DU?$char_traits@D@std@@V?$allocator@D@2@@std@@@std@@DU_Fmt_buffer_traits@2@@std@@8 ; std::_Fmt_iterator_buffer<std::back_insert_iterator<std::basic_string<char,std::char_traits<char>,std::allocator<char> > >,char,std::_Fmt_buffer_traits>::`RTTI Base Class Array'
PUBLIC	??_R1A@?0A@EA@format_error@std@@8		; std::format_error::`RTTI Base Class Descriptor at (0,-1,0,64)'
PUBLIC	??_R3?$numpunct@D@std@@8			; std::numpunct<char>::`RTTI Class Hierarchy Descriptor'
PUBLIC	??_R3?$_Fmt_buffer@D@std@@8			; std::_Fmt_buffer<char>::`RTTI Class Hierarchy Descriptor'
PUBLIC	??_R4?$numpunct@D@std@@6B@			; std::numpunct<char>::`RTTI Complete Object Locator'
PUBLIC	??_R2runtime_error@std@@8			; std::runtime_error::`RTTI Base Class Array'
PUBLIC	??_R4bad_array_new_length@std@@6B@		; std::bad_array_new_length::`RTTI Complete Object Locator'
PUBLIC	??_R1CA@?0A@EA@_Fmt_buffer_traits@std@@8	; std::_Fmt_buffer_traits::`RTTI Base Class Descriptor at (32,-1,0,64)'
PUBLIC	?_Flag@?1???$_Get_fmt_codec@D@std@@YAAEBV?$_Fmt_codec@D$0A@@1@XZ@4Uonce_flag@1@A ; `std::_Get_fmt_codec<char>'::`2'::_Flag
PUBLIC	??_R1A@?0A@EA@?$numpunct@D@std@@8		; std::numpunct<char>::`RTTI Base Class Descriptor at (0,-1,0,64)'
PUBLIC	??_R2_Crt_new_delete@std@@8			; std::_Crt_new_delete::`RTTI Base Class Array'
PUBLIC	??_R2format_error@std@@8			; std::format_error::`RTTI Base Class Array'
PUBLIC	??_R1A@?0A@EA@bad_array_new_length@std@@8	; std::bad_array_new_length::`RTTI Base Class Descriptor at (0,-1,0,64)'
PUBLIC	_TI3?AVformat_error@std@@
PUBLIC	_CT??_R0?AVexception@std@@@8??0exception@std@@QEAA@AEBV01@@Z24
PUBLIC	_TI3?AVbad_array_new_length@std@@
PUBLIC	??_R1A@?0A@EA@_Fmt_buffer_traits@std@@8		; std::_Fmt_buffer_traits::`RTTI Base Class Descriptor at (0,-1,0,64)'
PUBLIC	??_R2_Facet_base@std@@8				; std::_Facet_base::`RTTI Base Class Array'
PUBLIC	??_R2facet@locale@std@@8			; std::locale::facet::`RTTI Base Class Array'
PUBLIC	??_R0?AVexception@std@@@8			; std::exception `RTTI Type Descriptor'
PUBLIC	_CTA3?AVformat_error@std@@
PUBLIC	??_R2?$_Fmt_buffer@D@std@@8			; std::_Fmt_buffer<char>::`RTTI Base Class Array'
PUBLIC	??_R3runtime_error@std@@8			; std::runtime_error::`RTTI Class Hierarchy Descriptor'
PUBLIC	??_R0?AVbad_array_new_length@std@@@8		; std::bad_array_new_length `RTTI Type Descriptor'
PUBLIC	??_R2_Fmt_buffer_traits@std@@8			; std::_Fmt_buffer_traits::`RTTI Base Class Array'
PUBLIC	__isa_available_default
EXTRN	__imp_??0_Locinfo@std@@QEAA@PEBD@Z:PROC
EXTRN	__imp_??1_Locinfo@std@@QEAA@XZ:PROC
EXTRN	__imp_?_Getcvt@_Locinfo@std@@QEBA?AU_Cvtvec@@XZ:PROC
EXTRN	__imp_?_Getlconv@_Locinfo@std@@QEBAPEBUlconv@@XZ:PROC
EXTRN	__imp_?_Getdays@_Locinfo@std@@QEBAPEBDXZ:PROC
EXTRN	__imp_?_Getmonths@_Locinfo@std@@QEBAPEBDXZ:PROC
EXTRN	__imp_?_Getfalse@_Locinfo@std@@QEBAPEBDXZ:PROC
EXTRN	__imp_?_Gettrue@_Locinfo@std@@QEBAPEBDXZ:PROC
EXTRN	__imp_?_W_Getdays@_Locinfo@std@@QEBAPEBGXZ:PROC
EXTRN	__imp_?_W_Getmonths@_Locinfo@std@@QEBAPEBGXZ:PROC
EXTRN	__imp_??Bid@locale@std@@QEAA_KXZ:PROC
EXTRN	?_Incref@facet@locale@std@@UEAAXXZ:PROC		; std::locale::facet::_Incref
EXTRN	__imp_?_Incref@facet@locale@std@@UEAAXXZ:PROC
EXTRN	?_Decref@facet@locale@std@@UEAAPEAV_Facet_base@3@XZ:PROC ; std::locale::facet::_Decref
EXTRN	__imp_?_Decref@facet@locale@std@@UEAAPEAV_Facet_base@3@XZ:PROC
EXTRN	__imp_??0facet@locale@std@@IEAA@_K@Z:PROC
EXTRN	__imp_??1facet@locale@std@@MEAA@XZ:PROC
EXTRN	__imp_?good@ios_base@std@@QEBA_NXZ:PROC
EXTRN	__imp_?flags@ios_base@std@@QEBAHXZ:PROC
EXTRN	__imp_?width@ios_base@std@@QEBA_JXZ:PROC
EXTRN	__imp_?width@ios_base@std@@QEAA_J_J@Z:PROC
EXTRN	__imp_??5?$basic_istream@DU?$char_traits@D@std@@@std@@QEAAAEAV01@AEAN@Z:PROC
EXTRN	__imp_??6?$basic_ostream@DU?$char_traits@D@std@@@std@@QEAAAEAV01@N@Z:PROC
EXTRN	__imp_??6?$basic_ostream@DU?$char_traits@D@std@@@std@@QEAAAEAV01@P6AAEAV01@AEAV01@@Z@Z:PROC
EXTRN	__imp_?c_str@?$_Yarn@D@std@@QEBAPEBDXZ:PROC
EXTRN	__imp_?fill@?$basic_ios@DU?$char_traits@D@std@@@std@@QEBADXZ:PROC
EXTRN	__imp_?rdbuf@?$basic_ios@DU?$char_traits@D@std@@@std@@QEBAPEAV?$basic_streambuf@DU?$char_traits@D@std@@@2@XZ:PROC
EXTRN	__imp_?setstate@?$basic_ios@DU?$char_traits@D@std@@@std@@QEAAXH_N@Z:PROC
EXTRN	__imp_?flush@?$basic_ostream@DU?$char_traits@D@std@@@std@@QEAAAEAV12@XZ:PROC
EXTRN	__imp_?_Osfx@?$basic_ostream@DU?$char_traits@D@std@@@std@@QEAAXXZ:PROC
EXTRN	__imp_?tie@?$basic_ios@DU?$char_traits@D@std@@@std@@QEBAPEAV?$basic_ostream@DU?$char_traits@D@std@@@2@XZ:PROC
EXTRN	__imp_?sputc@?$basic_streambuf@DU?$char_traits@D@std@@@std@@QEAAHD@Z:PROC
EXTRN	__imp_?put@?$basic_ostream@DU?$char_traits@D@std@@@std@@QEAAAEAV12@D@Z:PROC
EXTRN	__imp_?widen@?$basic_ios@DU?$char_traits@D@std@@@std@@QEBADD@Z:PROC
EXTRN	__imp_?sputn@?$basic_streambuf@DU?$char_traits@D@std@@@std@@QEAA_JPEBD_J@Z:PROC
EXTRN	__imp__invalid_parameter_noinfo_noreturn:PROC
EXTRN	??_7type_info@@6B@:BYTE				; type_info::`vftable'
EXTRN	__imp___std_terminate:PROC
EXTRN	__imp_free:PROC
EXTRN	__imp__ldsign:PROC
EXTRN	__imp__fdsign:PROC
EXTRN	__imp__purecall:PROC
EXTRN	??3@YAXPEAX_K@Z:PROC				; operator delete
EXTRN	??3@YAXPEAX@Z:PROC				; operator delete
EXTRN	__imp___std_exception_copy:PROC
EXTRN	__imp_?_Xlength_error@std@@YAXPEBD@Z:PROC
EXTRN	?_Ordinary_X_table@?$_General_precision_tables_2@M@std@@2QBIB:BYTE ; std::_General_precision_tables_2<float>::_Ordinary_X_table
EXTRN	__imp___std_init_once_begin_initialize:PROC
EXTRN	?__POW10_SPLIT@std@@3QAY02$$CB_KA:BYTE		; std::__POW10_SPLIT
EXTRN	?_Special_X_table@?$_General_precision_tables_2@M@std@@2QBIB:BYTE ; std::_General_precision_tables_2<float>::_Special_X_table
EXTRN	?_Facet_Register@std@@YAXPEAV_Facet_base@1@@Z:PROC ; std::_Facet_Register
EXTRN	__imp_?id@?$numpunct@D@std@@2V0locale@2@A:QWORD
EXTRN	?_Ordinary_X_table@?$_General_precision_tables_2@N@std@@2QB_KB:BYTE ; std::_General_precision_tables_2<double>::_Ordinary_X_table
EXTRN	?__DOUBLE_POW5_INV_SPLIT@std@@3QAY01$$CB_KA:BYTE ; std::__DOUBLE_POW5_INV_SPLIT
EXTRN	?_Special_X_table@?$_General_precision_tables_2@N@std@@2QB_KB:BYTE ; std::_General_precision_tables_2<double>::_Special_X_table
EXTRN	?__POW10_SPLIT_2@std@@3QAY02$$CB_KA:BYTE	; std::__POW10_SPLIT_2
EXTRN	?__DOUBLE_POW5_SPLIT@std@@3QAY01$$CB_KA:BYTE	; std::__DOUBLE_POW5_SPLIT
EXTRN	__imp_?_Xout_of_range@std@@YAXPEBD@Z:PROC
EXTRN	__std_init_once_link_alternate_names_and_abort:PROC
EXTRN	__imp_?_Xbad_alloc@std@@YAXXZ:PROC
EXTRN	__imp_?cin@std@@3V?$basic_istream@DU?$char_traits@D@std@@@1@A:BYTE
EXTRN	__imp_?_Init@locale@std@@CAPEAV_Locimp@12@_N@Z:PROC
EXTRN	__imp_?_Getgloballocale@locale@std@@CAPEAV_Locimp@12@XZ:PROC
EXTRN	__imp_?cout@std@@3V?$basic_ostream@DU?$char_traits@D@std@@@1@A:BYTE
EXTRN	__imp_?uncaught_exceptions@std@@YAHXZ:PROC
EXTRN	__isa_available:DWORD
EXTRN	__imp___std_init_once_complete:PROC
EXTRN	__imp_??0_Lockit@std@@QEAA@H@Z:PROC
EXTRN	__imp_??1_Lockit@std@@QEAA@XZ:PROC
EXTRN	__std_get_cvt:PROC
EXTRN	??2@YAPEAX_K@Z:PROC				; operator new
EXTRN	__imp__dsign:PROC
EXTRN	__std_find_trivial_1:PROC
EXTRN	__imp_calloc:PROC
EXTRN	__imp__Mbrtowc:PROC
EXTRN	__imp_abort:PROC
EXTRN	__imp___std_exception_destroy:PROC
EXTRN	__security_check_cookie:PROC
EXTRN	__imp___CxxFrameHandler4:PROC
EXTRN	_purecall:PROC
;	COMDAT ?_Psave@?$_Facetptr@V?$numpunct@D@std@@@std@@2PEBVfacet@locale@2@EB
_BSS	SEGMENT
?_Psave@?$_Facetptr@V?$numpunct@D@std@@@std@@2PEBVfacet@locale@2@EB DQ 01H DUP (?) ; std::_Facetptr<std::numpunct<char> >::_Psave
_BSS	ENDS
;	COMDAT ?_Flag@?1???$_Get_fmt_codec@D@std@@YAAEBV?$_Fmt_codec@D$0A@@1@XZ@4Uonce_flag@1@A
_BSS	SEGMENT
?_Flag@?1???$_Get_fmt_codec@D@std@@YAAEBV?$_Fmt_codec@D$0A@@1@XZ@4Uonce_flag@1@A DQ 01H DUP (?) ; `std::_Get_fmt_codec<char>'::`2'::_Flag
_BSS	ENDS
;	COMDAT __isa_available_default
_BSS	SEGMENT
__isa_available_default DD 01H DUP (?)
_BSS	ENDS
;	COMDAT ??_R2_Fmt_buffer_traits@std@@8
rdata$r	SEGMENT
??_R2_Fmt_buffer_traits@std@@8 DD imagerel ??_R1A@?0A@EA@_Fmt_buffer_traits@std@@8 ; std::_Fmt_buffer_traits::`RTTI Base Class Array'
	ORG $+3
rdata$r	ENDS
;	COMDAT ??_R0?AVbad_array_new_length@std@@@8
data$r	SEGMENT
??_R0?AVbad_array_new_length@std@@@8 DQ FLAT:??_7type_info@@6B@ ; std::bad_array_new_length `RTTI Type Descriptor'
	DQ	0000000000000000H
	DB	'.?AVbad_array_new_length@std@@', 00H
data$r	ENDS
;	COMDAT ??_R3runtime_error@std@@8
rdata$r	SEGMENT
??_R3runtime_error@std@@8 DD 00H			; std::runtime_error::`RTTI Class Hierarchy Descriptor'
	DD	00H
	DD	02H
	DD	imagerel ??_R2runtime_error@std@@8
rdata$r	ENDS
;	COMDAT ??_R2?$_Fmt_buffer@D@std@@8
rdata$r	SEGMENT
??_R2?$_Fmt_buffer@D@std@@8 DD imagerel ??_R1A@?0A@EA@?$_Fmt_buffer@D@std@@8 ; std::_Fmt_buffer<char>::`RTTI Base Class Array'
	ORG $+3
rdata$r	ENDS
;	COMDAT _CTA3?AVformat_error@std@@
xdata$x	SEGMENT
_CTA3?AVformat_error@std@@ DD 03H
	DD	imagerel _CT??_R0?AVformat_error@std@@@8??0format_error@std@@QEAA@AEBV01@@Z24
	DD	imagerel _CT??_R0?AVruntime_error@std@@@8??0runtime_error@std@@QEAA@AEBV01@@Z24
	DD	imagerel _CT??_R0?AVexception@std@@@8??0exception@std@@QEAA@AEBV01@@Z24
xdata$x	ENDS
;	COMDAT ??_R0?AVexception@std@@@8
data$r	SEGMENT
??_R0?AVexception@std@@@8 DQ FLAT:??_7type_info@@6B@	; std::exception `RTTI Type Descriptor'
	DQ	0000000000000000H
	DB	'.?AVexception@std@@', 00H
data$r	ENDS
;	COMDAT ??_R2facet@locale@std@@8
rdata$r	SEGMENT
??_R2facet@locale@std@@8 DD imagerel ??_R1A@?0A@EA@facet@locale@std@@8 ; std::locale::facet::`RTTI Base Class Array'
	DD	imagerel ??_R1A@?0A@EA@_Facet_base@std@@8
	DD	imagerel ??_R17?0A@EA@_Crt_new_delete@std@@8
	ORG $+3
rdata$r	ENDS
;	COMDAT ??_R2_Facet_base@std@@8
rdata$r	SEGMENT
??_R2_Facet_base@std@@8 DD imagerel ??_R1A@?0A@EA@_Facet_base@std@@8 ; std::_Facet_base::`RTTI Base Class Array'
	ORG $+3
rdata$r	ENDS
;	COMDAT ??_R1A@?0A@EA@_Fmt_buffer_traits@std@@8
rdata$r	SEGMENT
??_R1A@?0A@EA@_Fmt_buffer_traits@std@@8 DD imagerel ??_R0?AU_Fmt_buffer_traits@std@@@8 ; std::_Fmt_buffer_traits::`RTTI Base Class Descriptor at (0,-1,0,64)'
	DD	00H
	DD	00H
	DD	0ffffffffH
	DD	00H
	DD	040H
	DD	imagerel ??_R3_Fmt_buffer_traits@std@@8
rdata$r	ENDS
;	COMDAT _TI3?AVbad_array_new_length@std@@
xdata$x	SEGMENT
_TI3?AVbad_array_new_length@std@@ DD 00H
	DD	imagerel ??1bad_array_new_length@std@@UEAA@XZ
	DD	00H
	DD	imagerel _CTA3?AVbad_array_new_length@std@@
xdata$x	ENDS
;	COMDAT _CT??_R0?AVexception@std@@@8??0exception@std@@QEAA@AEBV01@@Z24
xdata$x	SEGMENT
_CT??_R0?AVexception@std@@@8??0exception@std@@QEAA@AEBV01@@Z24 DD 00H
	DD	imagerel ??_R0?AVexception@std@@@8
	DD	00H
	DD	0ffffffffH
	ORG $+4
	DD	018H
	DD	imagerel ??0exception@std@@QEAA@AEBV01@@Z
xdata$x	ENDS
;	COMDAT _TI3?AVformat_error@std@@
xdata$x	SEGMENT
_TI3?AVformat_error@std@@ DD 00H
	DD	imagerel ??1format_error@std@@UEAA@XZ
	DD	00H
	DD	imagerel _CTA3?AVformat_error@std@@
xdata$x	ENDS
;	COMDAT ??_R1A@?0A@EA@bad_array_new_length@std@@8
rdata$r	SEGMENT
??_R1A@?0A@EA@bad_array_new_length@std@@8 DD imagerel ??_R0?AVbad_array_new_length@std@@@8 ; std::bad_array_new_length::`RTTI Base Class Descriptor at (0,-1,0,64)'
	DD	02H
	DD	00H
	DD	0ffffffffH
	DD	00H
	DD	040H
	DD	imagerel ??_R3bad_array_new_length@std@@8
rdata$r	ENDS
;	COMDAT ??_R2format_error@std@@8
rdata$r	SEGMENT
??_R2format_error@std@@8 DD imagerel ??_R1A@?0A@EA@format_error@std@@8 ; std::format_error::`RTTI Base Class Array'
	DD	imagerel ??_R1A@?0A@EA@runtime_error@std@@8
	DD	imagerel ??_R1A@?0A@EA@exception@std@@8
	ORG $+3
rdata$r	ENDS
;	COMDAT ??_R2_Crt_new_delete@std@@8
rdata$r	SEGMENT
??_R2_Crt_new_delete@std@@8 DD imagerel ??_R1A@?0A@EA@_Crt_new_delete@std@@8 ; std::_Crt_new_delete::`RTTI Base Class Array'
	ORG $+3
rdata$r	ENDS
;	COMDAT ??_R1A@?0A@EA@?$numpunct@D@std@@8
rdata$r	SEGMENT
??_R1A@?0A@EA@?$numpunct@D@std@@8 DD imagerel ??_R0?AV?$numpunct@D@std@@@8 ; std::numpunct<char>::`RTTI Base Class Descriptor at (0,-1,0,64)'
	DD	03H
	DD	00H
	DD	0ffffffffH
	DD	00H
	DD	040H
	DD	imagerel ??_R3?$numpunct@D@std@@8
rdata$r	ENDS
;	COMDAT ??_R1CA@?0A@EA@_Fmt_buffer_traits@std@@8
rdata$r	SEGMENT
??_R1CA@?0A@EA@_Fmt_buffer_traits@std@@8 DD imagerel ??_R0?AU_Fmt_buffer_traits@std@@@8 ; std::_Fmt_buffer_traits::`RTTI Base Class Descriptor at (32,-1,0,64)'
	DD	00H
	DD	020H
	DD	0ffffffffH
	DD	00H
	DD	040H
	DD	imagerel ??_R3_Fmt_buffer_traits@std@@8
rdata$r	ENDS
;	COMDAT ??_R4bad_array_new_length@std@@6B@
rdata$r	SEGMENT
??_R4bad_array_new_length@std@@6B@ DD 01H		; std::bad_array_new_length::`RTTI Complete Object Locator'
	DD	00H
	DD	00H
	DD	imagerel ??_R0?AVbad_array_new_length@std@@@8
	DD	imagerel ??_R3bad_array_new_length@std@@8
	DD	imagerel ??_R4bad_array_new_length@std@@6B@
rdata$r	ENDS
;	COMDAT ??_R2runtime_error@std@@8
rdata$r	SEGMENT
??_R2runtime_error@std@@8 DD imagerel ??_R1A@?0A@EA@runtime_error@std@@8 ; std::runtime_error::`RTTI Base Class Array'
	DD	imagerel ??_R1A@?0A@EA@exception@std@@8
	ORG $+3
rdata$r	ENDS
;	COMDAT ??_R4?$numpunct@D@std@@6B@
rdata$r	SEGMENT
??_R4?$numpunct@D@std@@6B@ DD 01H			; std::numpunct<char>::`RTTI Complete Object Locator'
	DD	00H
	DD	00H
	DD	imagerel ??_R0?AV?$numpunct@D@std@@@8
	DD	imagerel ??_R3?$numpunct@D@std@@8
	DD	imagerel ??_R4?$numpunct@D@std@@6B@
rdata$r	ENDS
;	COMDAT ??_R3?$_Fmt_buffer@D@std@@8
rdata$r	SEGMENT
??_R3?$_Fmt_buffer@D@std@@8 DD 00H			; std::_Fmt_buffer<char>::`RTTI Class Hierarchy Descriptor'
	DD	00H
	DD	01H
	DD	imagerel ??_R2?$_Fmt_buffer@D@std@@8
rdata$r	ENDS
;	COMDAT ??_R3?$numpunct@D@std@@8
rdata$r	SEGMENT
??_R3?$numpunct@D@std@@8 DD 00H				; std::numpunct<char>::`RTTI Class Hierarchy Descriptor'
	DD	01H
	DD	04H
	DD	imagerel ??_R2?$numpunct@D@std@@8
rdata$r	ENDS
;	COMDAT ??_R1A@?0A@EA@format_error@std@@8
rdata$r	SEGMENT
??_R1A@?0A@EA@format_error@std@@8 DD imagerel ??_R0?AVformat_error@std@@@8 ; std::format_error::`RTTI Base Class Descriptor at (0,-1,0,64)'
	DD	02H
	DD	00H
	DD	0ffffffffH
	DD	00H
	DD	040H
	DD	imagerel ??_R3format_error@std@@8
rdata$r	ENDS
;	COMDAT ??_R2?$_Fmt_iterator_buffer@V?$back_insert_iterator@V?$basic_string@DU?$char_traits@D@std@@V?$allocator@D@2@@std@@@std@@DU_Fmt_buffer_traits@2@@std@@8
rdata$r	SEGMENT
??_R2?$_Fmt_iterator_buffer@V?$back_insert_iterator@V?$basic_string@DU?$char_traits@D@std@@V?$allocator@D@2@@std@@@std@@DU_Fmt_buffer_traits@2@@std@@8 DD imagerel ??_R1A@?0A@EA@?$_Fmt_iterator_buffer@V?$back_insert_iterator@V?$basic_string@DU?$char_traits@D@std@@V?$allocator@D@2@@std@@@std@@DU_Fmt_buffer_traits@2@@std@@8 ; std::_Fmt_iterator_buffer<std::back_insert_iterator<std::basic_string<char,std::char_traits<char>,std::allocator<char> > >,char,std::_Fmt_buffer_traits>::`RTTI Base Class Array'
	DD	imagerel ??_R1CA@?0A@EA@_Fmt_buffer_traits@std@@8
	DD	imagerel ??_R1A@?0A@EA@?$_Fmt_buffer@D@std@@8
	ORG $+3
rdata$r	ENDS
;	COMDAT ??_R3bad_alloc@std@@8
rdata$r	SEGMENT
??_R3bad_alloc@std@@8 DD 00H				; std::bad_alloc::`RTTI Class Hierarchy Descriptor'
	DD	00H
	DD	02H
	DD	imagerel ??_R2bad_alloc@std@@8
rdata$r	ENDS
;	COMDAT _CT??_R0?AVbad_alloc@std@@@8??0bad_alloc@std@@QEAA@AEBV01@@Z24
xdata$x	SEGMENT
_CT??_R0?AVbad_alloc@std@@@8??0bad_alloc@std@@QEAA@AEBV01@@Z24 DD 010H
	DD	imagerel ??_R0?AVbad_alloc@std@@@8
	DD	00H
	DD	0ffffffffH
	ORG $+4
	DD	018H
	DD	imagerel ??0bad_alloc@std@@QEAA@AEBV01@@Z
xdata$x	ENDS
;	COMDAT ??_R3bad_array_new_length@std@@8
rdata$r	SEGMENT
??_R3bad_array_new_length@std@@8 DD 00H			; std::bad_array_new_length::`RTTI Class Hierarchy Descriptor'
	DD	00H
	DD	03H
	DD	imagerel ??_R2bad_array_new_length@std@@8
rdata$r	ENDS
;	COMDAT _CT??_R0?AVbad_cast@std@@@8??0bad_cast@std@@QEAA@AEBV01@@Z24
xdata$x	SEGMENT
_CT??_R0?AVbad_cast@std@@@8??0bad_cast@std@@QEAA@AEBV01@@Z24 DD 00H
	DD	imagerel ??_R0?AVbad_cast@std@@@8
	DD	00H
	DD	0ffffffffH
	ORG $+4
	DD	018H
	DD	imagerel ??0bad_cast@std@@QEAA@AEBV01@@Z
xdata$x	ENDS
;	COMDAT ??_R1A@?0A@EA@_Crt_new_delete@std@@8
rdata$r	SEGMENT
??_R1A@?0A@EA@_Crt_new_delete@std@@8 DD imagerel ??_R0?AU_Crt_new_delete@std@@@8 ; std::_Crt_new_delete::`RTTI Base Class Descriptor at (0,-1,0,64)'
	DD	00H
	DD	00H
	DD	0ffffffffH
	DD	00H
	DD	040H
	DD	imagerel ??_R3_Crt_new_delete@std@@8
rdata$r	ENDS
;	COMDAT ??_R4bad_cast@std@@6B@
rdata$r	SEGMENT
??_R4bad_cast@std@@6B@ DD 01H				; std::bad_cast::`RTTI Complete Object Locator'
	DD	00H
	DD	00H
	DD	imagerel ??_R0?AVbad_cast@std@@@8
	DD	imagerel ??_R3bad_cast@std@@8
	DD	imagerel ??_R4bad_cast@std@@6B@
rdata$r	ENDS
;	COMDAT ??_R4bad_alloc@std@@6B@
rdata$r	SEGMENT
??_R4bad_alloc@std@@6B@ DD 01H				; std::bad_alloc::`RTTI Complete Object Locator'
	DD	00H
	DD	00H
	DD	imagerel ??_R0?AVbad_alloc@std@@@8
	DD	imagerel ??_R3bad_alloc@std@@8
	DD	imagerel ??_R4bad_alloc@std@@6B@
rdata$r	ENDS
;	COMDAT ??_R3bad_cast@std@@8
rdata$r	SEGMENT
??_R3bad_cast@std@@8 DD 00H				; std::bad_cast::`RTTI Class Hierarchy Descriptor'
	DD	00H
	DD	02H
	DD	imagerel ??_R2bad_cast@std@@8
rdata$r	ENDS
;	COMDAT ??_7?$_Fmt_buffer@D@std@@6B@
CONST	SEGMENT
??_7?$_Fmt_buffer@D@std@@6B@ DQ FLAT:??_R4?$_Fmt_buffer@D@std@@6B@ ; std::_Fmt_buffer<char>::`vftable'
	DQ	FLAT:_purecall
CONST	ENDS
;	COMDAT _CT??_R0?AVruntime_error@std@@@8??0runtime_error@std@@QEAA@AEBV01@@Z24
xdata$x	SEGMENT
_CT??_R0?AVruntime_error@std@@@8??0runtime_error@std@@QEAA@AEBV01@@Z24 DD 00H
	DD	imagerel ??_R0?AVruntime_error@std@@@8
	DD	00H
	DD	0ffffffffH
	ORG $+4
	DD	018H
	DD	imagerel ??0runtime_error@std@@QEAA@AEBV01@@Z
xdata$x	ENDS
;	COMDAT ?__printable_property_data@std@@3U?$_Unicode_property_data@W4__printable_property_values@std@@$0CMH@$00@1@B
CONST	SEGMENT
?__printable_property_data@std@@3U?$_Unicode_property_data@W4__printable_property_values@std@@$0CMH@$00@1@B DD 020H ; std::__printable_property_data
	DD	0a1H
	DD	0aeH
	DD	037aH
	DD	0384H
	DD	038cH
	DD	038eH
	DD	03a3H
	DD	0531H
	DD	0559H
	DD	058dH
	DD	0591H
	DD	05d0H
	DD	05efH
	DD	0606H
	DD	061dH
	DD	06deH
	DD	0710H
	DD	074dH
	DD	07c0H
	DD	07fdH
	DD	0830H
	DD	0840H
	DD	085eH
	DD	0860H
	DD	0870H
	DD	0898H
	DD	08e3H
	DD	0985H
	DD	098fH
	DD	0993H
	DD	09aaH
	DD	09b2H
	DD	09b6H
	DD	09bcH
	DD	09c7H
	DD	09cbH
	DD	09d7H
	DD	09dcH
	DD	09dfH
	DD	09e6H
	DD	0a01H
	DD	0a05H
	DD	0a0fH
	DD	0a13H
	DD	0a2aH
	DD	0a32H
	DD	0a35H
	DD	0a38H
	DD	0a3cH
	DD	0a3eH
	DD	0a47H
	DD	0a4bH
	DD	0a51H
	DD	0a59H
	DD	0a5eH
	DD	0a66H
	DD	0a81H
	DD	0a85H
	DD	0a8fH
	DD	0a93H
	DD	0aaaH
	DD	0ab2H
	DD	0ab5H
	DD	0abcH
	DD	0ac7H
	DD	0acbH
	DD	0ad0H
	DD	0ae0H
	DD	0ae6H
	DD	0af9H
	DD	0b01H
	DD	0b05H
	DD	0b0fH
	DD	0b13H
	DD	0b2aH
	DD	0b32H
	DD	0b35H
	DD	0b3cH
	DD	0b47H
	DD	0b4bH
	DD	0b55H
	DD	0b5cH
	DD	0b5fH
	DD	0b66H
	DD	0b82H
	DD	0b85H
	DD	0b8eH
	DD	0b92H
	DD	0b99H
	DD	0b9cH
	DD	0b9eH
	DD	0ba3H
	DD	0ba8H
	DD	0baeH
	DD	0bbeH
	DD	0bc6H
	DD	0bcaH
	DD	0bd0H
	DD	0bd7H
	DD	0be6H
	DD	0c00H
	DD	0c0eH
	DD	0c12H
	DD	0c2aH
	DD	0c3cH
	DD	0c46H
	DD	0c4aH
	DD	0c55H
	DD	0c58H
	DD	0c5dH
	DD	0c60H
	DD	0c66H
	DD	0c77H
	DD	0c8eH
	DD	0c92H
	DD	0caaH
	DD	0cb5H
	DD	0cbcH
	DD	0cc6H
	DD	0ccaH
	DD	0cd5H
	DD	0cddH
	DD	0ce0H
	DD	0ce6H
	DD	0cf1H
	DD	0d00H
	DD	0d0eH
	DD	0d12H
	DD	0d46H
	DD	0d4aH
	DD	0d54H
	DD	0d66H
	DD	0d81H
	DD	0d85H
	DD	0d9aH
	DD	0db3H
	DD	0dbdH
	DD	0dc0H
	DD	0dcaH
	DD	0dcfH
	DD	0dd6H
	DD	0dd8H
	DD	0de6H
	DD	0df2H
	DD	0e01H
	DD	0e3fH
	DD	0e81H
	DD	0e84H
	DD	0e86H
	DD	0e8cH
	DD	0ea5H
	DD	0ea7H
	DD	0ec0H
	DD	0ec6H
	DD	0ec8H
	DD	0ed0H
	DD	0edcH
	DD	0f00H
	DD	0f49H
	DD	0f71H
	DD	0f99H
	DD	0fbeH
	DD	0fceH
	DD	01000H
	DD	010c7H
	DD	010cdH
	DD	010d0H
	DD	0124aH
	DD	01250H
	DD	01258H
	DD	0125aH
	DD	01260H
	DD	0128aH
	DD	01290H
	DD	012b2H
	DD	012b8H
	DD	012c0H
	DD	012c2H
	DD	012c8H
	DD	012d8H
	DD	01312H
	DD	01318H
	DD	0135dH
	DD	01380H
	DD	013a0H
	DD	013f8H
	DD	01400H
	DD	01681H
	DD	016a0H
	DD	01700H
	DD	0171fH
	DD	01740H
	DD	01760H
	DD	0176eH
	DD	01772H
	DD	01780H
	DD	017e0H
	DD	017f0H
	DD	01800H
	DD	0180fH
	DD	01820H
	DD	01880H
	DD	018b0H
	DD	01900H
	DD	01920H
	DD	01930H
	DD	01940H
	DD	01944H
	DD	01970H
	DD	01980H
	DD	019b0H
	DD	019d0H
	DD	019deH
	DD	01a1eH
	DD	01a60H
	DD	01a7fH
	DD	01a90H
	DD	01aa0H
	DD	01ab0H
	DD	01b00H
	DD	01b50H
	DD	01b80H
	DD	01bfcH
	DD	01c3bH
	DD	01c4dH
	DD	01c90H
	DD	01cbdH
	DD	01cd0H
	DD	01d00H
	DD	01f18H
	DD	01f20H
	DD	01f48H
	DD	01f50H
	DD	01f59H
	DD	01f5bH
	DD	01f5dH
	DD	01f5fH
	DD	01f80H
	DD	01fb6H
	DD	01fc6H
	DD	01fd6H
	DD	01fddH
	DD	01ff2H
	DD	01ff6H
	DD	02010H
	DD	02030H
	DD	02070H
	DD	02074H
	DD	02090H
	DD	020a0H
	DD	020d0H
	DD	02100H
	DD	02190H
	DD	02440H
	DD	02460H
	DD	02b76H
	DD	02b97H
	DD	02cf9H
	DD	02d27H
	DD	02d2dH
	DD	02d30H
	DD	02d6fH
	DD	02d7fH
	DD	02da0H
	DD	02da8H
	DD	02db0H
	DD	02db8H
	DD	02dc0H
	DD	02dc8H
	DD	02dd0H
	DD	02dd8H
	DD	02de0H
	DD	02e80H
	DD	02e9bH
	DD	02f00H
	DD	02ff0H
	DD	03001H
	DD	03041H
	DD	03099H
	DD	03105H
	DD	03131H
	DD	03190H
	DD	031f0H
	DD	03220H
	DD	0a490H
	DD	0a4d0H
	DD	0a640H
	DD	0a700H
	DD	0a7d0H
	DD	0a7d3H
	DD	0a7d5H
	DD	0a7f2H
	DD	0a830H
	DD	0a840H
	DD	0a880H
	DD	0a8ceH
	DD	0a8e0H
	DD	0a95fH
	DD	0a980H
	DD	0a9cfH
	DD	0a9deH
	DD	0aa00H
	DD	0aa40H
	DD	0aa50H
	DD	0aa5cH
	DD	0aadbH
	DD	0ab01H
	DD	0ab09H
	DD	0ab11H
	DD	0ab20H
	DD	0ab28H
	DD	0ab30H
	DD	0ab70H
	DD	0abf0H
	DD	0ac00H
	DD	0d7b0H
	DD	0d7cbH
	DD	0f900H
	DD	0fa70H
	DD	0fb00H
	DD	0fb13H
	DD	0fb1dH
	DD	0fb38H
	DD	0fb3eH
	DD	0fb40H
	DD	0fb43H
	DD	0fb46H
	DD	0fbd3H
	DD	0fd92H
	DD	0fdcfH
	DD	0fdf0H
	DD	0fe20H
	DD	0fe54H
	DD	0fe68H
	DD	0fe70H
	DD	0fe76H
	DD	0ff01H
	DD	0ffc2H
	DD	0ffcaH
	DD	0ffd2H
	DD	0ffdaH
	DD	0ffe0H
	DD	0ffe8H
	DD	0fffcH
	DD	010000H
	DD	01000dH
	DD	010028H
	DD	01003cH
	DD	01003fH
	DD	010050H
	DD	010080H
	DD	010100H
	DD	010107H
	DD	010137H
	DD	010190H
	DD	0101a0H
	DD	0101d0H
	DD	010280H
	DD	0102a0H
	DD	0102e0H
	DD	010300H
	DD	01032dH
	DD	010350H
	DD	010380H
	DD	01039fH
	DD	0103c8H
	DD	010400H
	DD	0104a0H
	DD	0104b0H
	DD	0104d8H
	DD	010500H
	DD	010530H
	DD	01056fH
	DD	01057cH
	DD	01058cH
	DD	010594H
	DD	010597H
	DD	0105a3H
	DD	0105b3H
	DD	0105bbH
	DD	010600H
	DD	010740H
	DD	010760H
	DD	010780H
	DD	010787H
	DD	0107b2H
	DD	010800H
	DD	010808H
	DD	01080aH
	DD	010837H
	DD	01083cH
	DD	01083fH
	DD	010857H
	DD	0108a7H
	DD	0108e0H
	DD	0108f4H
	DD	0108fbH
	DD	01091fH
	DD	01093fH
	DD	010980H
	DD	0109bcH
	DD	0109d2H
	DD	010a05H
	DD	010a0cH
	DD	010a15H
	DD	010a19H
	DD	010a38H
	DD	010a3fH
	DD	010a50H
	DD	010a60H
	DD	010ac0H
	DD	010aebH
	DD	010b00H
	DD	010b39H
	DD	010b58H
	DD	010b78H
	DD	010b99H
	DD	010ba9H
	DD	010c00H
	DD	010c80H
	DD	010cc0H
	DD	010cfaH
	DD	010d30H
	DD	010e60H
	DD	010e80H
	DD	010eabH
	DD	010eb0H
	DD	010efdH
	DD	010f30H
	DD	010f70H
	DD	010fb0H
	DD	010fe0H
	DD	011000H
	DD	011052H
	DD	01107fH
	DD	0110beH
	DD	0110d0H
	DD	0110f0H
	DD	011100H
	DD	011136H
	DD	011150H
	DD	011180H
	DD	0111e1H
	DD	011200H
	DD	011213H
	DD	011280H
	DD	011288H
	DD	01128aH
	DD	01128fH
	DD	01129fH
	DD	0112b0H
	DD	0112f0H
	DD	011300H
	DD	011305H
	DD	01130fH
	DD	011313H
	DD	01132aH
	DD	011332H
	DD	011335H
	DD	01133bH
	DD	011347H
	DD	01134bH
	DD	011350H
	DD	011357H
	DD	01135dH
	DD	011366H
	DD	011370H
	DD	011400H
	DD	01145dH
	DD	011480H
	DD	0114d0H
	DD	011580H
	DD	0115b8H
	DD	011600H
	DD	011650H
	DD	011660H
	DD	011680H
	DD	0116c0H
	DD	011700H
	DD	01171dH
	DD	011730H
	DD	011800H
	DD	0118a0H
	DD	0118ffH
	DD	011909H
	DD	01190cH
	DD	011915H
	DD	011918H
	DD	011937H
	DD	01193bH
	DD	011950H
	DD	0119a0H
	DD	0119aaH
	DD	0119daH
	DD	011a00H
	DD	011a50H
	DD	011ab0H
	DD	011b00H
	DD	011c00H
	DD	011c0aH
	DD	011c38H
	DD	011c50H
	DD	011c70H
	DD	011c92H
	DD	011ca9H
	DD	011d00H
	DD	011d08H
	DD	011d0bH
	DD	011d3aH
	DD	011d3cH
	DD	011d3fH
	DD	011d50H
	DD	011d60H
	DD	011d67H
	DD	011d6aH
	DD	011d90H
	DD	011d93H
	DD	011da0H
	DD	011ee0H
	DD	011f00H
	DD	011f12H
	DD	011f3eH
	DD	011fb0H
	DD	011fc0H
	DD	011fffH
	DD	012400H
	DD	012470H
	DD	012480H
	DD	012f90H
	DD	013000H
	DD	013440H
	DD	014400H
	DD	016800H
	DD	016a40H
	DD	016a60H
	DD	016a6eH
	DD	016ac0H
	DD	016ad0H
	DD	016af0H
	DD	016b00H
	DD	016b50H
	DD	016b5bH
	DD	016b63H
	DD	016b7dH
	DD	016e40H
	DD	016f00H
	DD	016f4fH
	DD	016f8fH
	DD	016fe0H
	DD	016ff0H
	DD	017000H
	DD	018800H
	DD	018d00H
	DD	01aff0H
	DD	01aff5H
	DD	01affdH
	DD	01b000H
	DD	01b132H
	DD	01b150H
	DD	01b155H
	DD	01b164H
	DD	01b170H
	DD	01bc00H
	DD	01bc70H
	DD	01bc80H
	DD	01bc90H
	DD	01bc9cH
	DD	01cf00H
	DD	01cf30H
	DD	01cf50H
	DD	01d000H
	DD	01d100H
	DD	01d129H
	DD	01d17bH
	DD	01d200H
	DD	01d2c0H
	DD	01d2e0H
	DD	01d300H
	DD	01d360H
	DD	01d400H
	DD	01d456H
	DD	01d49eH
	DD	01d4a2H
	DD	01d4a5H
	DD	01d4a9H
	DD	01d4aeH
	DD	01d4bbH
	DD	01d4bdH
	DD	01d4c5H
	DD	01d507H
	DD	01d50dH
	DD	01d516H
	DD	01d51eH
	DD	01d53bH
	DD	01d540H
	DD	01d546H
	DD	01d54aH
	DD	01d552H
	DD	01d6a8H
	DD	01d7ceH
	DD	01da9bH
	DD	01daa1H
	DD	01df00H
	DD	01df25H
	DD	01e000H
	DD	01e008H
	DD	01e01bH
	DD	01e023H
	DD	01e026H
	DD	01e030H
	DD	01e08fH
	DD	01e100H
	DD	01e130H
	DD	01e140H
	DD	01e14eH
	DD	01e290H
	DD	01e2c0H
	DD	01e2ffH
	DD	01e4d0H
	DD	01e7e0H
	DD	01e7e8H
	DD	01e7edH
	DD	01e7f0H
	DD	01e800H
	DD	01e8c7H
	DD	01e900H
	DD	01e950H
	DD	01e95eH
	DD	01ec71H
	DD	01ed01H
	DD	01ee00H
	DD	01ee05H
	DD	01ee21H
	DD	01ee24H
	DD	01ee27H
	DD	01ee29H
	DD	01ee34H
	DD	01ee39H
	DD	01ee3bH
	DD	01ee42H
	DD	01ee47H
	DD	01ee49H
	DD	01ee4bH
	DD	01ee4dH
	DD	01ee51H
	DD	01ee54H
	DD	01ee57H
	DD	01ee59H
	DD	01ee5bH
	DD	01ee5dH
	DD	01ee5fH
	DD	01ee61H
	DD	01ee64H
	DD	01ee67H
	DD	01ee6cH
	DD	01ee74H
	DD	01ee79H
	DD	01ee7eH
	DD	01ee80H
	DD	01ee8bH
	DD	01eea1H
	DD	01eea5H
	DD	01eeabH
	DD	01eef0H
	DD	01f000H
	DD	01f030H
	DD	01f0a0H
	DD	01f0b1H
	DD	01f0c1H
	DD	01f0d1H
	DD	01f100H
	DD	01f1e6H
	DD	01f210H
	DD	01f240H
	DD	01f250H
	DD	01f260H
	DD	01f300H
	DD	01f6dcH
	DD	01f6f0H
	DD	01f700H
	DD	01f77bH
	DD	01f7e0H
	DD	01f7f0H
	DD	01f800H
	DD	01f810H
	DD	01f850H
	DD	01f860H
	DD	01f890H
	DD	01f8b0H
	DD	01f900H
	DD	01fa60H
	DD	01fa70H
	DD	01fa80H
	DD	01fa90H
	DD	01fabfH
	DD	01faceH
	DD	01fae0H
	DD	01faf0H
	DD	01fb00H
	DD	01fb94H
	DD	01fbf0H
	DD	020000H
	DD	02a700H
	DD	02b740H
	DD	02b820H
	DD	02ceb0H
	DD	02f800H
	DD	030000H
	DD	031350H
	DD	0e0100H
	DW	05fH
	DW	0cH
	DW	02caH
	DW	06H
	DW	07H
	DW	01H
	DW	014H
	DW	018dH
	DW	026H
	DW	032H
	DW	03H
	DW	037H
	DW	01bH
	DW	06H
	DW	016H
	DW	0c0H
	DW	030H
	DW	03bH
	DW	065H
	DW	03bH
	DW	031H
	DW	0fH
	DW	01cH
	DW	01H
	DW	0bH
	DW	01fH
	DW	04aH
	DW	0a1H
	DW	08H
	DW	02H
	DW	016H
	DW	07H
	DW	01H
	DW	04H
	DW	09H
	DW	02H
	DW	04H
	DW	01H
	DW	02H
	DW	05H
	DW	019H
	DW	03H
	DW	06H
	DW	02H
	DW	016H
	DW	07H
	DW	02H
	DW	02H
	DW	02H
	DW	01H
	DW	05H
	DW	02H
	DW	03H
	DW	01H
	DW	04H
	DW	01H
	DW	011H
	DW	03H
	DW	09H
	DW	03H
	DW	016H
	DW	07H
	DW	02H
	DW	05H
	DW	0aH
	DW	03H
	DW	03H
	DW	01H
	DW	04H
	DW	0cH
	DW	07H
	DW	03H
	DW	08H
	DW	02H
	DW	016H
	DW	07H
	DW	02H
	DW	05H
	DW	09H
	DW	02H
	DW	03H
	DW	03H
	DW	02H
	DW	05H
	DW	012H
	DW	02H
	DW	06H
	DW	03H
	DW	04H
	DW	02H
	DW	01H
	DW	02H
	DW	02H
	DW	03H
	DW	0cH
	DW	05H
	DW	03H
	DW	04H
	DW	01H
	DW	01H
	DW	015H
	DW	0dH
	DW	03H
	DW	017H
	DW	010H
	DW	09H
	DW	03H
	DW	04H
	DW	02H
	DW	03H
	DW	01H
	DW	04H
	DW	0aH
	DW	016H
	DW	03H
	DW	017H
	DW	0aH
	DW	05H
	DW	09H
	DW	03H
	DW	04H
	DW	02H
	DW	02H
	DW	04H
	DW	0aH
	DW	03H
	DW	0dH
	DW	03H
	DW	033H
	DW	03H
	DW	06H
	DW	010H
	DW	01aH
	DW	03H
	DW	012H
	DW	018H
	DW	09H
	DW	01H
	DW	07H
	DW	01H
	DW	06H
	DW	01H
	DW	08H
	DW	0aH
	DW	03H
	DW	03aH
	DW	01dH
	DW	02H
	DW	01H
	DW	05H
	DW	018H
	DW	01H
	DW	017H
	DW	05H
	DW	01H
	DW	07H
	DW	0aH
	DW	04H
	DW	048H
	DW	024H
	DW	027H
	DW	024H
	DW	0fH
	DW	0dH
	DW	0c6H
	DW	01H
	DW	01H
	DW	0179H
	DW	04H
	DW	07H
	DW	01H
	DW	04H
	DW	029H
	DW	04H
	DW	021H
	DW	04H
	DW	07H
	DW	01H
	DW	04H
	DW	0fH
	DW	039H
	DW	04H
	DW	043H
	DW	020H
	DW	01aH
	DW	056H
	DW	06H
	DW	0280H
	DW	01cH
	DW	059H
	DW	016H
	DW	018H
	DW	014H
	DW	0dH
	DW	03H
	DW	02H
	DW	05eH
	DW	0aH
	DW	0aH
	DW	0eH
	DW	0bH
	DW	059H
	DW	02bH
	DW	046H
	DW	01fH
	DW	0cH
	DW	0cH
	DW	01H
	DW	02aH
	DW	05H
	DW	02cH
	DW	01aH
	DW	0bH
	DW	03eH
	DW	041H
	DW	01dH
	DW	0bH
	DW	0aH
	DW	0eH
	DW	01fH
	DW	04dH
	DW	02fH
	DW	074H
	DW	03cH
	DW	0fH
	DW	03cH
	DW	02bH
	DW	0bH
	DW	02bH
	DW	0216H
	DW	06H
	DW	026H
	DW	06H
	DW	08H
	DW	01H
	DW	01H
	DW	01H
	DW	01fH
	DW	035H
	DW	0fH
	DW	0eH
	DW	06H
	DW	013H
	DW	03H
	DW	09H
	DW	018H
	DW	02fH
	DW	02H
	DW	01bH
	DW	0dH
	DW	021H
	DW	021H
	DW	08cH
	DW	0297H
	DW	0bH
	DW	0714H
	DW	020H
	DW	015dH
	DW	02dH
	DW	01H
	DW	01H
	DW	038H
	DW	02H
	DW	018H
	DW	07H
	DW	07H
	DW	07H
	DW	07H
	DW	07H
	DW	07H
	DW	07H
	DW	07H
	DW	07eH
	DW	01aH
	DW	059H
	DW	0d6H
	DW	0cH
	DW	03fH
	DW	056H
	DW	067H
	DW	02bH
	DW	05eH
	DW	054H
	DW	02fH
	DW	0726dH
	DW	037H
	DW	015cH
	DW	0b8H
	DW	0cbH
	DW	02H
	DW	01H
	DW	05H
	DW	03bH
	DW	0aH
	DW	038H
	DW	046H
	DW	0cH
	DW	074H
	DW	01eH
	DW	04eH
	DW	0bH
	DW	021H
	DW	037H
	DW	0eH
	DW	0aH
	DW	067H
	DW	01cH
	DW	06H
	DW	06H
	DW	06H
	DW	07H
	DW	07H
	DW	03cH
	DW	07eH
	DW	0aH
	DW	02ba4H
	DW	017H
	DW	031H
	DW	016eH
	DW	06aH
	DW	07H
	DW	05H
	DW	01aH
	DW	05H
	DW	01H
	DW	02H
	DW	02H
	DW	07dH
	DW	01bdH
	DW	036H
	DW	01H
	DW	02aH
	DW	033H
	DW	013H
	DW	04H
	DW	05H
	DW	087H
	DW	0beH
	DW	06H
	DW	06H
	DW	06H
	DW	03H
	DW	07H
	DW	07H
	DW	02H
	DW	0cH
	DW	01aH
	DW	013H
	DW	02H
	DW	0fH
	DW	0eH
	DW	07bH
	DW	03H
	DW	02dH
	DW	058H
	DW	0dH
	DW	01H
	DW	02eH
	DW	01dH
	DW	031H
	DW	01cH
	DW	024H
	DW	01eH
	DW	02bH
	DW	01eH
	DW	025H
	DW	0eH
	DW	09eH
	DW	0aH
	DW	024H
	DW	024H
	DW	028H
	DW	034H
	DW	0cH
	DW	0fH
	DW	07H
	DW	02H
	DW	0bH
	DW	0fH
	DW	07H
	DW	02H
	DW	0137H
	DW	016H
	DW	08H
	DW	06H
	DW	02aH
	DW	09H
	DW	06H
	DW	01H
	DW	02cH
	DW	02H
	DW	01H
	DW	017H
	DW	048H
	DW	09H
	DW	013H
	DW	02H
	DW	021H
	DW	01bH
	DW	01H
	DW	038H
	DW	014H
	DW	032H
	DW	02H
	DW	08H
	DW	03H
	DW	01dH
	DW	03H
	DW	0aH
	DW	09H
	DW	040H
	DW	027H
	DW	0cH
	DW	036H
	DW	01dH
	DW	01bH
	DW	01aH
	DW	04H
	DW	07H
	DW	049H
	DW	033H
	DW	033H
	DW	02eH
	DW	0aH
	DW	01fH
	DW	02aH
	DW	03H
	DW	02H
	DW	02bH
	DW	02aH
	DW	01aH
	DW	01cH
	DW	017H
	DW	04eH
	DW	024H
	DW	03eH
	DW	05H
	DW	019H
	DW	0aH
	DW	035H
	DW	012H
	DW	027H
	DW	060H
	DW	014H
	DW	012H
	DW	02fH
	DW	07H
	DW	01H
	DW	04H
	DW	0fH
	DW	0bH
	DW	03bH
	DW	0aH
	DW	04H
	DW	08H
	DW	02H
	DW	016H
	DW	07H
	DW	02H
	DW	05H
	DW	0aH
	DW	02H
	DW	03H
	DW	01H
	DW	01H
	DW	07H
	DW	07H
	DW	05H
	DW	05cH
	DW	05H
	DW	048H
	DW	0aH
	DW	036H
	DW	026H
	DW	045H
	DW	0aH
	DW	0dH
	DW	03aH
	DW	0aH
	DW	01bH
	DW	0fH
	DW	017H
	DW	03cH
	DW	053H
	DW	08H
	DW	01H
	DW	08H
	DW	02H
	DW	01eH
	DW	02H
	DW	0cH
	DW	0aH
	DW	08H
	DW	02eH
	DW	0bH
	DW	048H
	DW	053H
	DW	049H
	DW	0aH
	DW	09H
	DW	02dH
	DW	0eH
	DW	01dH
	DW	020H
	DW	016H
	DW	0eH
	DW	07H
	DW	02H
	DW	02cH
	DW	01H
	DW	02H
	DW	09H
	DW	0aH
	DW	06H
	DW	02H
	DW	025H
	DW	02H
	DW	06H
	DW	0aH
	DW	019H
	DW	011H
	DW	029H
	DW	01cH
	DW	01H
	DW	032H
	DW	039bH
	DW	06fH
	DW	05H
	DW	0c4H
	DW	063H
	DW	0430H
	DW	016H
	DW	0247H
	DW	0239H
	DW	01fH
	DW	0aH
	DW	051H
	DW	0aH
	DW	01eH
	DW	06H
	DW	046H
	DW	0aH
	DW	07H
	DW	015H
	DW	013H
	DW	05bH
	DW	04bH
	DW	039H
	DW	011H
	DW	05H
	DW	02H
	DW	017f8H
	DW	04d6H
	DW	09H
	DW	04H
	DW	07H
	DW	02H
	DW	0123H
	DW	01H
	DW	03H
	DW	01H
	DW	04H
	DW	018cH
	DW	06bH
	DW	0dH
	DW	09H
	DW	0aH
	DW	04H
	DW	02eH
	DW	017H
	DW	074H
	DW	0f6H
	DW	027H
	DW	04aH
	DW	070H
	DW	046H
	DW	014H
	DW	014H
	DW	057H
	DW	019H
	DW	055H
	DW	047H
	DW	02H
	DW	01H
	DW	02H
	DW	04H
	DW	0cH
	DW	01H
	DW	07H
	DW	041H
	DW	04H
	DW	08H
	DW	07H
	DW	01cH
	DW	04H
	DW	05H
	DW	01H
	DW	07H
	DW	0154H
	DW	0124H
	DW	02beH
	DW	05H
	DW	0fH
	DW	01fH
	DW	06H
	DW	07H
	DW	011H
	DW	07H
	DW	02H
	DW	05H
	DW	03eH
	DW	01H
	DW	02dH
	DW	0eH
	DW	0aH
	DW	02H
	DW	01fH
	DW	03aH
	DW	01H
	DW	02aH
	DW	07H
	DW	04H
	DW	02H
	DW	0fH
	DW	0c5H
	DW	010H
	DW	04cH
	DW	0aH
	DW	02H
	DW	044H
	DW	03dH
	DW	04H
	DW	01bH
	DW	02H
	DW	01H
	DW	01H
	DW	0aH
	DW	04H
	DW	01H
	DW	01H
	DW	01H
	DW	01H
	DW	01H
	DW	01H
	DW	03H
	DW	02H
	DW	01H
	DW	01H
	DW	01H
	DW	01H
	DW	01H
	DW	01H
	DW	02H
	DW	01H
	DW	04H
	DW	07H
	DW	04H
	DW	04H
	DW	01H
	DW	0aH
	DW	011H
	DW	03H
	DW	05H
	DW	011H
	DW	02H
	DW	02cH
	DW	064H
	DW	0fH
	DW	0fH
	DW	0fH
	DW	025H
	DW	0aeH
	DW	01dH
	DW	02cH
	DW	09H
	DW	02H
	DW	06H
	DW	03d8H
	DW	011H
	DW	0dH
	DW	077H
	DW	05fH
	DW	0cH
	DW	01H
	DW	0cH
	DW	038H
	DW	0aH
	DW	028H
	DW	01eH
	DW	02H
	DW	0154H
	DW	0eH
	DW	0dH
	DW	09H
	DW	02eH
	DW	07H
	DW	0eH
	DW	09H
	DW	09H
	DW	093H
	DW	037H
	DW	0aH
	DW	0a6e0H
	DW	0103aH
	DW	0deH
	DW	01682H
	DW	01d31H
	DW	021eH
	DW	0134bH
	DW	01060H
	DW	0f0H
	ORG $+2
CONST	ENDS
;	COMDAT ?_Grapheme_Extend_property_data@std@@3U?$_Unicode_property_data@W4_Grapheme_Extend_property_values@std@@$0BGL@$00@1@B
CONST	SEGMENT
?_Grapheme_Extend_property_data@std@@3U?$_Unicode_property_data@W4_Grapheme_Extend_property_values@std@@$0BGL@$00@1@B DD 0300H ; std::_Grapheme_Extend_property_data
	DD	0483H
	DD	0591H
	DD	05bfH
	DD	05c1H
	DD	05c4H
	DD	05c7H
	DD	0610H
	DD	064bH
	DD	0670H
	DD	06d6H
	DD	06dfH
	DD	06e7H
	DD	06eaH
	DD	0711H
	DD	0730H
	DD	07a6H
	DD	07ebH
	DD	07fdH
	DD	0816H
	DD	081bH
	DD	0825H
	DD	0829H
	DD	0859H
	DD	0898H
	DD	08caH
	DD	08e3H
	DD	093aH
	DD	093cH
	DD	0941H
	DD	094dH
	DD	0951H
	DD	0962H
	DD	0981H
	DD	09bcH
	DD	09beH
	DD	09c1H
	DD	09cdH
	DD	09d7H
	DD	09e2H
	DD	09feH
	DD	0a01H
	DD	0a3cH
	DD	0a41H
	DD	0a47H
	DD	0a4bH
	DD	0a51H
	DD	0a70H
	DD	0a75H
	DD	0a81H
	DD	0abcH
	DD	0ac1H
	DD	0ac7H
	DD	0acdH
	DD	0ae2H
	DD	0afaH
	DD	0b01H
	DD	0b3cH
	DD	0b3eH
	DD	0b41H
	DD	0b4dH
	DD	0b55H
	DD	0b62H
	DD	0b82H
	DD	0bbeH
	DD	0bc0H
	DD	0bcdH
	DD	0bd7H
	DD	0c00H
	DD	0c04H
	DD	0c3cH
	DD	0c3eH
	DD	0c46H
	DD	0c4aH
	DD	0c55H
	DD	0c62H
	DD	0c81H
	DD	0cbcH
	DD	0cbfH
	DD	0cc2H
	DD	0cc6H
	DD	0cccH
	DD	0cd5H
	DD	0ce2H
	DD	0d00H
	DD	0d3bH
	DD	0d3eH
	DD	0d41H
	DD	0d4dH
	DD	0d57H
	DD	0d62H
	DD	0d81H
	DD	0dcaH
	DD	0dcfH
	DD	0dd2H
	DD	0dd6H
	DD	0ddfH
	DD	0e31H
	DD	0e34H
	DD	0e47H
	DD	0eb1H
	DD	0eb4H
	DD	0ec8H
	DD	0f18H
	DD	0f35H
	DD	0f37H
	DD	0f39H
	DD	0f71H
	DD	0f80H
	DD	0f86H
	DD	0f8dH
	DD	0f99H
	DD	0fc6H
	DD	0102dH
	DD	01032H
	DD	01039H
	DD	0103dH
	DD	01058H
	DD	0105eH
	DD	01071H
	DD	01082H
	DD	01085H
	DD	0108dH
	DD	0109dH
	DD	0135dH
	DD	01712H
	DD	01732H
	DD	01752H
	DD	01772H
	DD	017b4H
	DD	017b7H
	DD	017c6H
	DD	017c9H
	DD	017ddH
	DD	0180bH
	DD	0180fH
	DD	01885H
	DD	018a9H
	DD	01920H
	DD	01927H
	DD	01932H
	DD	01939H
	DD	01a17H
	DD	01a1bH
	DD	01a56H
	DD	01a58H
	DD	01a60H
	DD	01a62H
	DD	01a65H
	DD	01a73H
	DD	01a7fH
	DD	01ab0H
	DD	01b00H
	DD	01b34H
	DD	01b3cH
	DD	01b42H
	DD	01b6bH
	DD	01b80H
	DD	01ba2H
	DD	01ba8H
	DD	01babH
	DD	01be6H
	DD	01be8H
	DD	01bedH
	DD	01befH
	DD	01c2cH
	DD	01c36H
	DD	01cd0H
	DD	01cd4H
	DD	01ce2H
	DD	01cedH
	DD	01cf4H
	DD	01cf8H
	DD	01dc0H
	DD	0200cH
	DD	020d0H
	DD	02cefH
	DD	02d7fH
	DD	02de0H
	DD	0302aH
	DD	03099H
	DD	0a66fH
	DD	0a674H
	DD	0a69eH
	DD	0a6f0H
	DD	0a802H
	DD	0a806H
	DD	0a80bH
	DD	0a825H
	DD	0a82cH
	DD	0a8c4H
	DD	0a8e0H
	DD	0a8ffH
	DD	0a926H
	DD	0a947H
	DD	0a980H
	DD	0a9b3H
	DD	0a9b6H
	DD	0a9bcH
	DD	0a9e5H
	DD	0aa29H
	DD	0aa31H
	DD	0aa35H
	DD	0aa43H
	DD	0aa4cH
	DD	0aa7cH
	DD	0aab0H
	DD	0aab2H
	DD	0aab7H
	DD	0aabeH
	DD	0aac1H
	DD	0aaecH
	DD	0aaf6H
	DD	0abe5H
	DD	0abe8H
	DD	0abedH
	DD	0fb1eH
	DD	0fe00H
	DD	0fe20H
	DD	0ff9eH
	DD	0101fdH
	DD	0102e0H
	DD	010376H
	DD	010a01H
	DD	010a05H
	DD	010a0cH
	DD	010a38H
	DD	010a3fH
	DD	010ae5H
	DD	010d24H
	DD	010eabH
	DD	010efdH
	DD	010f46H
	DD	010f82H
	DD	011001H
	DD	011038H
	DD	011070H
	DD	011073H
	DD	01107fH
	DD	0110b3H
	DD	0110b9H
	DD	0110c2H
	DD	011100H
	DD	011127H
	DD	01112dH
	DD	011173H
	DD	011180H
	DD	0111b6H
	DD	0111c9H
	DD	0111cfH
	DD	01122fH
	DD	011234H
	DD	011236H
	DD	01123eH
	DD	011241H
	DD	0112dfH
	DD	0112e3H
	DD	011300H
	DD	01133bH
	DD	01133eH
	DD	011340H
	DD	011357H
	DD	011366H
	DD	011370H
	DD	011438H
	DD	011442H
	DD	011446H
	DD	01145eH
	DD	0114b0H
	DD	0114b3H
	DD	0114baH
	DD	0114bdH
	DD	0114bfH
	DD	0114c2H
	DD	0115afH
	DD	0115b2H
	DD	0115bcH
	DD	0115bfH
	DD	0115dcH
	DD	011633H
	DD	01163dH
	DD	01163fH
	DD	0116abH
	DD	0116adH
	DD	0116b0H
	DD	0116b7H
	DD	01171dH
	DD	011722H
	DD	011727H
	DD	01182fH
	DD	011839H
	DD	011930H
	DD	01193bH
	DD	01193eH
	DD	011943H
	DD	0119d4H
	DD	0119daH
	DD	0119e0H
	DD	011a01H
	DD	011a33H
	DD	011a3bH
	DD	011a47H
	DD	011a51H
	DD	011a59H
	DD	011a8aH
	DD	011a98H
	DD	011c30H
	DD	011c38H
	DD	011c3fH
	DD	011c92H
	DD	011caaH
	DD	011cb2H
	DD	011cb5H
	DD	011d31H
	DD	011d3aH
	DD	011d3cH
	DD	011d3fH
	DD	011d47H
	DD	011d90H
	DD	011d95H
	DD	011d97H
	DD	011ef3H
	DD	011f00H
	DD	011f36H
	DD	011f40H
	DD	011f42H
	DD	013440H
	DD	013447H
	DD	016af0H
	DD	016b30H
	DD	016f4fH
	DD	016f8fH
	DD	016fe4H
	DD	01bc9dH
	DD	01cf00H
	DD	01cf30H
	DD	01d165H
	DD	01d167H
	DD	01d16eH
	DD	01d17bH
	DD	01d185H
	DD	01d1aaH
	DD	01d242H
	DD	01da00H
	DD	01da3bH
	DD	01da75H
	DD	01da84H
	DD	01da9bH
	DD	01daa1H
	DD	01e000H
	DD	01e008H
	DD	01e01bH
	DD	01e023H
	DD	01e026H
	DD	01e08fH
	DD	01e130H
	DD	01e2aeH
	DD	01e2ecH
	DD	01e4ecH
	DD	01e8d0H
	DD	01e944H
	DD	0e0020H
	DD	0e0100H
	DW	070H
	DW	07H
	DW	02dH
	DW	01H
	DW	02H
	DW	02H
	DW	01H
	DW	0bH
	DW	015H
	DW	01H
	DW	07H
	DW	06H
	DW	02H
	DW	04H
	DW	01H
	DW	01bH
	DW	0bH
	DW	09H
	DW	01H
	DW	04H
	DW	09H
	DW	03H
	DW	05H
	DW	03H
	DW	08H
	DW	018H
	DW	020H
	DW	01H
	DW	01H
	DW	08H
	DW	01H
	DW	07H
	DW	02H
	DW	01H
	DW	01H
	DW	01H
	DW	04H
	DW	01H
	DW	01H
	DW	02H
	DW	01H
	DW	02H
	DW	01H
	DW	02H
	DW	02H
	DW	03H
	DW	01H
	DW	02H
	DW	01H
	DW	02H
	DW	01H
	DW	05H
	DW	02H
	DW	01H
	DW	02H
	DW	06H
	DW	01H
	DW	01H
	DW	02H
	DW	04H
	DW	01H
	DW	03H
	DW	02H
	DW	01H
	DW	01H
	DW	01H
	DW	01H
	DW	01H
	DW	01H
	DW	01H
	DW	01H
	DW	03H
	DW	03H
	DW	04H
	DW	02H
	DW	02H
	DW	01H
	DW	01H
	DW	01H
	DW	01H
	DW	01H
	DW	02H
	DW	02H
	DW	02H
	DW	02H
	DW	02H
	DW	01H
	DW	04H
	DW	01H
	DW	01H
	DW	02H
	DW	01H
	DW	01H
	DW	01H
	DW	03H
	DW	01H
	DW	01H
	DW	01H
	DW	07H
	DW	08H
	DW	01H
	DW	09H
	DW	07H
	DW	02H
	DW	01H
	DW	01H
	DW	01H
	DW	0eH
	DW	05H
	DW	02H
	DW	0bH
	DW	024H
	DW	01H
	DW	04H
	DW	06H
	DW	02H
	DW	02H
	DW	02H
	DW	03H
	DW	04H
	DW	01H
	DW	02H
	DW	01H
	DW	01H
	DW	03H
	DW	03H
	DW	02H
	DW	02H
	DW	02H
	DW	02H
	DW	07H
	DW	01H
	DW	0bH
	DW	01H
	DW	03H
	DW	01H
	DW	02H
	DW	01H
	DW	03H
	DW	02H
	DW	01H
	DW	03H
	DW	02H
	DW	01H
	DW	01H
	DW	07H
	DW	01H
	DW	01H
	DW	08H
	DW	0aH
	DW	01H
	DW	01fH
	DW	04H
	DW	07H
	DW	01H
	DW	01H
	DW	09H
	DW	02H
	DW	04H
	DW	02H
	DW	03H
	DW	01H
	DW	02H
	DW	01H
	DW	03H
	DW	08H
	DW	02H
	DW	03H
	DW	0dH
	DW	07H
	DW	01H
	DW	01H
	DW	02H
	DW	040H
	DW	01H
	DW	021H
	DW	03H
	DW	01H
	DW	020H
	DW	06H
	DW	02H
	DW	04H
	DW	0aH
	DW	02H
	DW	02H
	DW	01H
	DW	01H
	DW	01H
	DW	02H
	DW	01H
	DW	02H
	DW	012H
	DW	01H
	DW	08H
	DW	0bH
	DW	03H
	DW	01H
	DW	04H
	DW	02H
	DW	01H
	DW	06H
	DW	02H
	DW	02H
	DW	01H
	DW	01H
	DW	01H
	DW	01H
	DW	03H
	DW	02H
	DW	02H
	DW	01H
	DW	02H
	DW	01H
	DW	01H
	DW	01H
	DW	01H
	DW	01H
	DW	010H
	DW	010H
	DW	02H
	DW	01H
	DW	01H
	DW	05H
	DW	03H
	DW	02H
	DW	04H
	DW	03H
	DW	01H
	DW	02H
	DW	04H
	DW	02H
	DW	03H
	DW	0bH
	DW	04H
	DW	01H
	DW	0fH
	DW	01H
	DW	02H
	DW	03H
	DW	04H
	DW	02H
	DW	01H
	DW	03H
	DW	05H
	DW	08H
	DW	01H
	DW	02H
	DW	09H
	DW	04H
	DW	01H
	DW	03H
	DW	01H
	DW	02H
	DW	01H
	DW	01H
	DW	01H
	DW	08H
	DW	02H
	DW	02H
	DW	01H
	DW	01H
	DW	01H
	DW	07H
	DW	05H
	DW	08H
	DW	03H
	DW	01H
	DW	01H
	DW	01H
	DW	06H
	DW	01H
	DW	01H
	DW	02H
	DW	02H
	DW	01H
	DW	04H
	DW	02H
	DW	02H
	DW	02H
	DW	08H
	DW	01H
	DW	02H
	DW	01H
	DW	01H
	DW	06H
	DW	01H
	DW	03H
	DW	04H
	DW	05H
	DW	09H
	DW	02H
	DW	01H
	DW	02H
	DW	01H
	DW	01H
	DW	04H
	DW	02H
	DW	01H
	DW	0aH
	DW	06H
	DW	04H
	DW	01H
	DW	06H
	DW	03H
	DW	0dH
	DW	02H
	DW	07H
	DW	06H
	DW	01H
	DW	016H
	DW	07H
	DW	02H
	DW	02H
	DW	06H
	DW	01H
	DW	02H
	DW	07H
	DW	01H
	DW	02H
	DW	01H
	DW	01H
	DW	02H
	DW	02H
	DW	05H
	DW	01H
	DW	01H
	DW	01H
	DW	0fH
	DW	05H
	DW	07H
	DW	01H
	DW	04H
	DW	01H
	DW	02H
	DW	02eH
	DW	017H
	DW	01H
	DW	03H
	DW	05H
	DW	08H
	DW	07H
	DW	04H
	DW	03H
	DW	037H
	DW	032H
	DW	01H
	DW	01H
	DW	05H
	DW	0fH
	DW	07H
	DW	011H
	DW	07H
	DW	02H
	DW	05H
	DW	01H
	DW	07H
	DW	01H
	DW	04H
	DW	04H
	DW	07H
	DW	07H
	DW	060H
	DW	0f0H
	ORG $+2
CONST	ENDS
;	COMDAT ?__FLOAT_POW5_SPLIT@std@@3QB_KB
CONST	SEGMENT
?__FLOAT_POW5_SPLIT@std@@3QB_KB DQ 1000000000000000H	; std::__FLOAT_POW5_SPLIT
	DQ	1400000000000000H
	DQ	1900000000000000H
	DQ	1f40000000000000H
	DQ	1388000000000000H
	DQ	186a000000000000H
	DQ	1e84800000000000H
	DQ	1312d00000000000H
	DQ	17d7840000000000H
	DQ	1dcd650000000000H
	DQ	12a05f2000000000H
	DQ	174876e800000000H
	DQ	1d1a94a200000000H
	DQ	12309ce540000000H
	DQ	16bcc41e90000000H
	DQ	1c6bf52634000000H
	DQ	11c37937e0800000H
	DQ	16345785d8a00000H
	DQ	1bc16d674ec80000H
	DQ	1158e460913d0000H
	DQ	15af1d78b58c4000H
	DQ	1b1ae4d6e2ef5000H
	DQ	10f0cf064dd59200H
	DQ	152d02c7e14af680H
	DQ	1a784379d99db420H
	DQ	108b2a2c28029094H
	DQ	14adf4b7320334b9H
	DQ	19d971e4fe8401e7H
	DQ	1027e72f1f128130H
	DQ	1431e0fae6d7217cH
	DQ	193e5939a08ce9dbH
	DQ	1f8def8808b02452H
	DQ	13b8b5b5056e16b3H
	DQ	18a6e32246c99c60H
	DQ	1ed09bead87c0378H
	DQ	13426172c74d822bH
	DQ	1812f9cf7920e2b6H
	DQ	1e17b84357691b64H
	DQ	12ced32a16a1b11eH
	DQ	178287f49c4a1d66H
	DQ	1d6329f1c35ca4bfH
	DQ	125dfa371a19e6f7H
	DQ	16f578c4e0a060b5H
	DQ	1cb2d6f618c878e3H
	DQ	11efc659cf7d4b8dH
	DQ	166bb7f0435c9e71H
	DQ	1c06a5ec5433c60dH
CONST	ENDS
;	COMDAT ?_Charconv_digits@std@@3QBDB
CONST	SEGMENT
?_Charconv_digits@std@@3QBDB DB 030H			; std::_Charconv_digits
	DB	031H
	DB	032H
	DB	033H
	DB	034H
	DB	035H
	DB	036H
	DB	037H
	DB	038H
	DB	039H
	DB	061H
	DB	062H
	DB	063H
	DB	064H
	DB	065H
	DB	066H
	DB	067H
	DB	068H
	DB	069H
	DB	06aH
	DB	06bH
	DB	06cH
	DB	06dH
	DB	06eH
	DB	06fH
	DB	070H
	DB	071H
	DB	072H
	DB	073H
	DB	074H
	DB	075H
	DB	076H
	DB	077H
	DB	078H
	DB	079H
	DB	07aH
CONST	ENDS
;	COMDAT ?__MIN_BLOCK_2@std@@3QBEB
CONST	SEGMENT
?__MIN_BLOCK_2@std@@3QBEB DB 00H			; std::__MIN_BLOCK_2
	DB	00H
	DB	00H
	DB	00H
	DB	00H
	DB	00H
	DB	01H
	DB	01H
	DB	02H
	DB	03H
	DB	03H
	DB	04H
	DB	04H
	DB	05H
	DB	05H
	DB	06H
	DB	06H
	DB	07H
	DB	07H
	DB	08H
	DB	08H
	DB	09H
	DB	09H
	DB	0aH
	DB	0bH
	DB	0bH
	DB	0cH
	DB	0cH
	DB	0dH
	DB	0dH
	DB	0eH
	DB	0eH
	DB	0fH
	DB	0fH
	DB	010H
	DB	010H
	DB	011H
	DB	011H
	DB	012H
	DB	013H
	DB	013H
	DB	014H
	DB	014H
	DB	015H
	DB	015H
	DB	016H
	DB	016H
	DB	017H
	DB	017H
	DB	018H
	DB	018H
	DB	019H
	DB	01aH
	DB	01aH
	DB	01bH
	DB	01bH
	DB	01cH
	DB	01cH
	DB	01dH
	DB	01dH
	DB	01eH
	DB	01eH
	DB	01fH
	DB	01fH
	DB	020H
	DB	020H
	DB	021H
	DB	022H
	DB	00H
CONST	ENDS
;	COMDAT ?_Max_P@?$_General_precision_tables_2@N@std@@2HB
CONST	SEGMENT
?_Max_P@?$_General_precision_tables_2@N@std@@2HB DD 0135H ; std::_General_precision_tables_2<double>::_Max_P
CONST	ENDS
;	COMDAT ?__FLOAT_POW5_INV_SPLIT@std@@3QB_KB
CONST	SEGMENT
?__FLOAT_POW5_INV_SPLIT@std@@3QB_KB DQ 0800000000000001H ; std::__FLOAT_POW5_INV_SPLIT
	DQ	0666666666666667H
	DQ	051eb851eb851eb9H
	DQ	04189374bc6a7efaH
	DQ	068db8bac710cb2aH
	DQ	053e2d6238da3c22H
	DQ	0431bde82d7b634eH
	DQ	06b5fca6af2bd216H
	DQ	055e63b88c230e78H
	DQ	044b82fa09b5a52dH
	DQ	06df37f675ef6eaeH
	DQ	057f5ff85e592558H
	DQ	0465e6604b7a8447H
	DQ	0709709a125da071H
	DQ	05a126e1a84ae6c1H
	DQ	0480ebe7b9d58567H
	DQ	0734aca5f6226f0bH
	DQ	05c3bd5191b525a3H
	DQ	049c97747490eae9H
	DQ	0760f253edb4ab0eH
	DQ	05e72843249088d8H
	DQ	04b8ed0283a6d3e0H
	DQ	078e480405d7b966H
	DQ	060b6cd004ac9452H
	DQ	04d5f0a66a23a9dbH
	DQ	07bcb43d769f762bH
	DQ	063090312bb2c4efH
	DQ	04f3a68dbc8f03f3H
	DQ	07ec3daf94180651H
	DQ	065697bfa9acd1daH
	DQ	051212ffbaf0a7e2H
CONST	ENDS
;	COMDAT ?default_sentinel@std@@3Udefault_sentinel_t@1@B
CONST	SEGMENT
?default_sentinel@std@@3Udefault_sentinel_t@1@B	ORG $+1	; std::default_sentinel
CONST	ENDS
;	COMDAT ??$__DIGIT_TABLE@D@std@@3QBDB
CONST	SEGMENT
??$__DIGIT_TABLE@D@std@@3QBDB DB 030H			; std::__DIGIT_TABLE<char>
	DB	030H
	DB	030H
	DB	031H
	DB	030H
	DB	032H
	DB	030H
	DB	033H
	DB	030H
	DB	034H
	DB	030H
	DB	035H
	DB	030H
	DB	036H
	DB	030H
	DB	037H
	DB	030H
	DB	038H
	DB	030H
	DB	039H
	DB	031H
	DB	030H
	DB	031H
	DB	031H
	DB	031H
	DB	032H
	DB	031H
	DB	033H
	DB	031H
	DB	034H
	DB	031H
	DB	035H
	DB	031H
	DB	036H
	DB	031H
	DB	037H
	DB	031H
	DB	038H
	DB	031H
	DB	039H
	DB	032H
	DB	030H
	DB	032H
	DB	031H
	DB	032H
	DB	032H
	DB	032H
	DB	033H
	DB	032H
	DB	034H
	DB	032H
	DB	035H
	DB	032H
	DB	036H
	DB	032H
	DB	037H
	DB	032H
	DB	038H
	DB	032H
	DB	039H
	DB	033H
	DB	030H
	DB	033H
	DB	031H
	DB	033H
	DB	032H
	DB	033H
	DB	033H
	DB	033H
	DB	034H
	DB	033H
	DB	035H
	DB	033H
	DB	036H
	DB	033H
	DB	037H
	DB	033H
	DB	038H
	DB	033H
	DB	039H
	DB	034H
	DB	030H
	DB	034H
	DB	031H
	DB	034H
	DB	032H
	DB	034H
	DB	033H
	DB	034H
	DB	034H
	DB	034H
	DB	035H
	DB	034H
	DB	036H
	DB	034H
	DB	037H
	DB	034H
	DB	038H
	DB	034H
	DB	039H
	DB	035H
	DB	030H
	DB	035H
	DB	031H
	DB	035H
	DB	032H
	DB	035H
	DB	033H
	DB	035H
	DB	034H
	DB	035H
	DB	035H
	DB	035H
	DB	036H
	DB	035H
	DB	037H
	DB	035H
	DB	038H
	DB	035H
	DB	039H
	DB	036H
	DB	030H
	DB	036H
	DB	031H
	DB	036H
	DB	032H
	DB	036H
	DB	033H
	DB	036H
	DB	034H
	DB	036H
	DB	035H
	DB	036H
	DB	036H
	DB	036H
	DB	037H
	DB	036H
	DB	038H
	DB	036H
	DB	039H
	DB	037H
	DB	030H
	DB	037H
	DB	031H
	DB	037H
	DB	032H
	DB	037H
	DB	033H
	DB	037H
	DB	034H
	DB	037H
	DB	035H
	DB	037H
	DB	036H
	DB	037H
	DB	037H
	DB	037H
	DB	038H
	DB	037H
	DB	039H
	DB	038H
	DB	030H
	DB	038H
	DB	031H
	DB	038H
	DB	032H
	DB	038H
	DB	033H
	DB	038H
	DB	034H
	DB	038H
	DB	035H
	DB	038H
	DB	036H
	DB	038H
	DB	037H
	DB	038H
	DB	038H
	DB	038H
	DB	039H
	DB	039H
	DB	030H
	DB	039H
	DB	031H
	DB	039H
	DB	032H
	DB	039H
	DB	033H
	DB	039H
	DB	034H
	DB	039H
	DB	035H
	DB	039H
	DB	036H
	DB	039H
	DB	037H
	DB	039H
	DB	038H
	DB	039H
	DB	039H
CONST	ENDS
;	COMDAT ?__POW10_OFFSET_2@std@@3QBGB
CONST	SEGMENT
?__POW10_OFFSET_2@std@@3QBGB DW 00H			; std::__POW10_OFFSET_2
	DW	02H
	DW	06H
	DW	0cH
	DW	014H
	DW	01dH
	DW	028H
	DW	034H
	DW	042H
	DW	050H
	DW	05fH
	DW	070H
	DW	082H
	DW	096H
	DW	0aaH
	DW	0c0H
	DW	0d7H
	DW	0f0H
	DW	0109H
	DW	0124H
	DW	0140H
	DW	015eH
	DW	017dH
	DW	019dH
	DW	01beH
	DW	01e0H
	DW	0204H
	DW	0228H
	DW	024eH
	DW	0275H
	DW	029eH
	DW	02c8H
	DW	02f3H
	DW	031fH
	DW	034dH
	DW	037cH
	DW	03acH
	DW	03ddH
	DW	0410H
	DW	0444H
	DW	0479H
	DW	04afH
	DW	04e6H
	DW	051fH
	DW	0559H
	DW	0594H
	DW	05d0H
	DW	060eH
	DW	064dH
	DW	068eH
	DW	06cfH
	DW	0712H
	DW	0756H
	DW	079bH
	DW	07e1H
	DW	0828H
	DW	0871H
	DW	08bbH
	DW	0907H
	DW	0953H
	DW	09a1H
	DW	09f0H
	DW	0a41H
	DW	0a92H
	DW	0ae5H
	DW	0b39H
	DW	0b8fH
	DW	0be6H
	DW	0c3dH
CONST	ENDS
;	COMDAT ?fill_n@ranges@std@@3V_Fill_n_fn@12@B
CONST	SEGMENT
?fill_n@ranges@std@@3V_Fill_n_fn@12@B	ORG $+1		; std::ranges::fill_n
CONST	ENDS
;	COMDAT ?_Uend@_Cpos@ranges@std@@3V_Cpo@_Unchecked_end@23@B
CONST	SEGMENT
?_Uend@_Cpos@ranges@std@@3V_Cpo@_Unchecked_end@23@B	ORG $+1 ; std::ranges::_Cpos::_Uend
CONST	ENDS
;	COMDAT ?begin@_Cpos@ranges@std@@3V_Cpo@_Begin@23@B
CONST	SEGMENT
?begin@_Cpos@ranges@std@@3V_Cpo@_Begin@23@B	ORG $+1	; std::ranges::_Cpos::begin
CONST	ENDS
;	COMDAT ?copy@ranges@std@@3V_Copy_fn@12@B
CONST	SEGMENT
?copy@ranges@std@@3V_Copy_fn@12@B	ORG $+1		; std::ranges::copy
CONST	ENDS
;	COMDAT ?_Max_P@?$_General_precision_tables_2@M@std@@2HB
CONST	SEGMENT
?_Max_P@?$_General_precision_tables_2@M@std@@2HB DD 027H ; std::_General_precision_tables_2<float>::_Max_P
CONST	ENDS
;	COMDAT ?__POW10_OFFSET@std@@3QBGB
CONST	SEGMENT
?__POW10_OFFSET@std@@3QBGB DW 00H			; std::__POW10_OFFSET
	DW	02H
	DW	05H
	DW	08H
	DW	0cH
	DW	010H
	DW	015H
	DW	01aH
	DW	020H
	DW	027H
	DW	02eH
	DW	036H
	DW	03eH
	DW	047H
	DW	050H
	DW	05aH
	DW	064H
	DW	06fH
	DW	07aH
	DW	086H
	DW	092H
	DW	09fH
	DW	0adH
	DW	0bbH
	DW	0caH
	DW	0d9H
	DW	0e9H
	DW	0f9H
	DW	010aH
	DW	011bH
	DW	012dH
	DW	013fH
	DW	0152H
	DW	0165H
	DW	0179H
	DW	018dH
	DW	01a2H
	DW	01b8H
	DW	01ceH
	DW	01e5H
	DW	01fcH
	DW	0214H
	DW	022cH
	DW	0245H
	DW	025eH
	DW	0278H
	DW	0292H
	DW	02adH
	DW	02c8H
	DW	02e4H
	DW	0301H
	DW	031eH
	DW	033cH
	DW	035aH
	DW	0379H
	DW	0398H
	DW	03b8H
	DW	03d8H
	DW	03f9H
	DW	041aH
	DW	043cH
	DW	045eH
	DW	0481H
	DW	04a4H
CONST	ENDS
;	COMDAT ?_Fake_alloc@std@@3U_Fake_allocator@1@B
CONST	SEGMENT
?_Fake_alloc@std@@3U_Fake_allocator@1@B	ORG $+1		; std::_Fake_alloc
CONST	ENDS
;	COMDAT ??_R4?$_Fmt_buffer@D@std@@6B@
rdata$r	SEGMENT
??_R4?$_Fmt_buffer@D@std@@6B@ DD 01H			; std::_Fmt_buffer<char>::`RTTI Complete Object Locator'
	DD	00H
	DD	00H
	DD	imagerel ??_R0?AV?$_Fmt_buffer@D@std@@@8
	DD	imagerel ??_R3?$_Fmt_buffer@D@std@@8
	DD	imagerel ??_R4?$_Fmt_buffer@D@std@@6B@
rdata$r	ENDS
;	COMDAT ??_R3facet@locale@std@@8
rdata$r	SEGMENT
??_R3facet@locale@std@@8 DD 00H				; std::locale::facet::`RTTI Class Hierarchy Descriptor'
	DD	01H
	DD	03H
	DD	imagerel ??_R2facet@locale@std@@8
rdata$r	ENDS
;	COMDAT ?_Max_shifted_mantissa@?DC@???$__to_chars@D@std@@YA?AU?$pair@PEADW4errc@std@@@1@QEAD0U__floating_decimal_32@1@W4chars_format@1@II@Z@4QBIB
CONST	SEGMENT
?_Max_shifted_mantissa@?DC@???$__to_chars@D@std@@YA?AU?$pair@PEADW4errc@std@@@1@QEAD0U__floating_decimal_32@1@W4chars_format@1@II@Z@4QBIB DD 0ffffffH ; `std::__to_chars<char>'::`50'::_Max_shifted_mantissa
	DD	0333333H
	DD	0a3d70H
	DD	020c49H
	DD	068dbH
	DD	014f8H
	DD	0431H
	DD	0d6H
	DD	02aH
	DD	08H
	DD	01H
CONST	ENDS
;	COMDAT ??_R0?AVformat_error@std@@@8
data$r	SEGMENT
??_R0?AVformat_error@std@@@8 DQ FLAT:??_7type_info@@6B@	; std::format_error `RTTI Type Descriptor'
	DQ	0000000000000000H
	DB	'.?AVformat_error@std@@', 00H
data$r	ENDS
;	COMDAT ??_R0?AVfacet@locale@std@@@8
data$rs	SEGMENT
??_R0?AVfacet@locale@std@@@8 DQ FLAT:??_7type_info@@6B@	; std::locale::facet `RTTI Type Descriptor'
	DQ	0000000000000000H
	DB	'.?AVfacet@locale@std@@', 00H
data$rs	ENDS
;	COMDAT ??_R2?$numpunct@D@std@@8
rdata$r	SEGMENT
??_R2?$numpunct@D@std@@8 DD imagerel ??_R1A@?0A@EA@?$numpunct@D@std@@8 ; std::numpunct<char>::`RTTI Base Class Array'
	DD	imagerel ??_R1A@?0A@EA@facet@locale@std@@8
	DD	imagerel ??_R1A@?0A@EA@_Facet_base@std@@8
	DD	imagerel ??_R17?0A@EA@_Crt_new_delete@std@@8
	ORG $+3
rdata$r	ENDS
;	COMDAT ?_Max_shifted_mantissa@?DC@???$__to_chars@D@std@@YA?AU?$pair@PEADW4errc@std@@@1@QEAD0U__floating_decimal_64@1@W4chars_format@1@N@Z@4QB_KB
CONST	SEGMENT
?_Max_shifted_mantissa@?DC@???$__to_chars@D@std@@YA?AU?$pair@PEADW4errc@std@@@1@QEAD0U__floating_decimal_64@1@W4chars_format@1@N@Z@4QB_KB DQ 001fffffffffffffH ; `std::__to_chars<char>'::`50'::_Max_shifted_mantissa
	DQ	0006666666666666H
	DQ	000147ae147ae147H
	DQ	00004189374bc6a7H
	DQ	00000d1b71758e21H
	DQ	0000029f16b11c6dH
	DQ	0000008637bd05afH
	DQ	0000001ad7f29abcH
	DQ	000000055e63b88cH
	DQ	0000000112e0be82H
	DQ	0000000036f9bfb3H
	DQ	000000000afebff0H
	DQ	000000000232f330H
	DQ	0000000000709709H
	DQ	000000000016849bH
	DQ	00000000000480ebH
	DQ	000000000000e695H
	DQ	0000000000002e1dH
	DQ	0000000000000939H
	DQ	00000000000001d8H
	DQ	000000000000005eH
	DQ	0000000000000012H
	DQ	0000000000000003H
CONST	ENDS
;	COMDAT ??_7runtime_error@std@@6B@
CONST	SEGMENT
??_7runtime_error@std@@6B@ DQ FLAT:??_R4runtime_error@std@@6B@ ; std::runtime_error::`vftable'
	DQ	FLAT:??_Eruntime_error@std@@UEAAPEAXI@Z
	DQ	FLAT:?what@exception@std@@UEBAPEBDXZ
CONST	ENDS
;	COMDAT _CT??_R0?AVbad_array_new_length@std@@@8??0bad_array_new_length@std@@QEAA@AEBV01@@Z24
xdata$x	SEGMENT
_CT??_R0?AVbad_array_new_length@std@@@8??0bad_array_new_length@std@@QEAA@AEBV01@@Z24 DD 00H
	DD	imagerel ??_R0?AVbad_array_new_length@std@@@8
	DD	00H
	DD	0ffffffffH
	ORG $+4
	DD	018H
	DD	imagerel ??0bad_array_new_length@std@@QEAA@AEBV01@@Z
xdata$x	ENDS
;	COMDAT ??_R3exception@std@@8
rdata$r	SEGMENT
??_R3exception@std@@8 DD 00H				; std::exception::`RTTI Class Hierarchy Descriptor'
	DD	00H
	DD	01H
	DD	imagerel ??_R2exception@std@@8
rdata$r	ENDS
;	COMDAT ??_R1A@?0A@EA@?$_Fmt_iterator_buffer@V?$back_insert_iterator@V?$basic_string@DU?$char_traits@D@std@@V?$allocator@D@2@@std@@@std@@DU_Fmt_buffer_traits@2@@std@@8
rdata$r	SEGMENT
??_R1A@?0A@EA@?$_Fmt_iterator_buffer@V?$back_insert_iterator@V?$basic_string@DU?$char_traits@D@std@@V?$allocator@D@2@@std@@@std@@DU_Fmt_buffer_traits@2@@std@@8 DD imagerel ??_R0?AV?$_Fmt_iterator_buffer@V?$back_insert_iterator@V?$basic_string@DU?$char_traits@D@std@@V?$allocator@D@2@@std@@@std@@DU_Fmt_buffer_traits@2@@std@@@8 ; std::_Fmt_iterator_buffer<std::back_insert_iterator<std::basic_string<char,std::char_traits<char>,std::allocator<char> > >,char,std::_Fmt_buffer_traits>::`RTTI Base Class Descriptor at (0,-1,0,64)'
	DD	02H
	DD	00H
	DD	0ffffffffH
	DD	00H
	DD	040H
	DD	imagerel ??_R3?$_Fmt_iterator_buffer@V?$back_insert_iterator@V?$basic_string@DU?$char_traits@D@std@@V?$allocator@D@2@@std@@@std@@DU_Fmt_buffer_traits@2@@std@@8
rdata$r	ENDS
;	COMDAT ??_R3?$_Fmt_iterator_buffer@V?$back_insert_iterator@V?$basic_string@DU?$char_traits@D@std@@V?$allocator@D@2@@std@@@std@@DU_Fmt_buffer_traits@2@@std@@8
rdata$r	SEGMENT
??_R3?$_Fmt_iterator_buffer@V?$back_insert_iterator@V?$basic_string@DU?$char_traits@D@std@@V?$allocator@D@2@@std@@@std@@DU_Fmt_buffer_traits@2@@std@@8 DD 00H ; std::_Fmt_iterator_buffer<std::back_insert_iterator<std::basic_string<char,std::char_traits<char>,std::allocator<char> > >,char,std::_Fmt_buffer_traits>::`RTTI Class Hierarchy Descriptor'
	DD	01H
	DD	03H
	DD	imagerel ??_R2?$_Fmt_iterator_buffer@V?$back_insert_iterator@V?$basic_string@DU?$char_traits@D@std@@V?$allocator@D@2@@std@@@std@@DU_Fmt_buffer_traits@2@@std@@8
rdata$r	ENDS
;	COMDAT ??_7exception@std@@6B@
CONST	SEGMENT
??_7exception@std@@6B@ DQ FLAT:??_R4exception@std@@6B@	; std::exception::`vftable'
	DQ	FLAT:??_Eexception@std@@UEAAPEAXI@Z
	DQ	FLAT:?what@exception@std@@UEBAPEBDXZ
CONST	ENDS
;	COMDAT ??_7?$_Fmt_iterator_buffer@V?$back_insert_iterator@V?$basic_string@DU?$char_traits@D@std@@V?$allocator@D@2@@std@@@std@@DU_Fmt_buffer_traits@2@@std@@6B@
CONST	SEGMENT
??_7?$_Fmt_iterator_buffer@V?$back_insert_iterator@V?$basic_string@DU?$char_traits@D@std@@V?$allocator@D@2@@std@@@std@@DU_Fmt_buffer_traits@2@@std@@6B@ DQ FLAT:??_R4?$_Fmt_iterator_buffer@V?$back_insert_iterator@V?$basic_string@DU?$char_traits@D@std@@V?$allocator@D@2@@std@@@std@@DU_Fmt_buffer_traits@2@@std@@6B@ ; std::_Fmt_iterator_buffer<std::back_insert_iterator<std::basic_string<char,std::char_traits<char>,std::allocator<char> > >,char,std::_Fmt_buffer_traits>::`vftable'
	DQ	FLAT:?_Grow@?$_Fmt_iterator_buffer@V?$back_insert_iterator@V?$basic_string@DU?$char_traits@D@std@@V?$allocator@D@2@@std@@@std@@DU_Fmt_buffer_traits@2@@std@@EEAAX_K@Z
CONST	ENDS
;	COMDAT _TI2?AVbad_cast@std@@
xdata$x	SEGMENT
_TI2?AVbad_cast@std@@ DD 00H
	DD	imagerel ??1bad_cast@std@@UEAA@XZ
	DD	00H
	DD	imagerel _CTA2?AVbad_cast@std@@
xdata$x	ENDS
;	COMDAT ??_R0?AVbad_cast@std@@@8
data$r	SEGMENT
??_R0?AVbad_cast@std@@@8 DQ FLAT:??_7type_info@@6B@	; std::bad_cast `RTTI Type Descriptor'
	DQ	0000000000000000H
	DB	'.?AVbad_cast@std@@', 00H
data$r	ENDS
;	COMDAT ??_R1A@?0A@EA@facet@locale@std@@8
rdata$r	SEGMENT
??_R1A@?0A@EA@facet@locale@std@@8 DD imagerel ??_R0?AVfacet@locale@std@@@8 ; std::locale::facet::`RTTI Base Class Descriptor at (0,-1,0,64)'
	DD	02H
	DD	00H
	DD	0ffffffffH
	DD	00H
	DD	040H
	DD	imagerel ??_R3facet@locale@std@@8
rdata$r	ENDS
;	COMDAT ??_R3format_error@std@@8
rdata$r	SEGMENT
??_R3format_error@std@@8 DD 00H				; std::format_error::`RTTI Class Hierarchy Descriptor'
	DD	00H
	DD	03H
	DD	imagerel ??_R2format_error@std@@8
rdata$r	ENDS
;	COMDAT ??_7bad_cast@std@@6B@
CONST	SEGMENT
??_7bad_cast@std@@6B@ DQ FLAT:??_R4bad_cast@std@@6B@	; std::bad_cast::`vftable'
	DQ	FLAT:??_Ebad_cast@std@@UEAAPEAXI@Z
	DQ	FLAT:?what@exception@std@@UEBAPEBDXZ
CONST	ENDS
;	COMDAT ??_R2exception@std@@8
rdata$r	SEGMENT
??_R2exception@std@@8 DD imagerel ??_R1A@?0A@EA@exception@std@@8 ; std::exception::`RTTI Base Class Array'
	ORG $+3
rdata$r	ENDS
;	COMDAT ??_R2bad_cast@std@@8
rdata$r	SEGMENT
??_R2bad_cast@std@@8 DD imagerel ??_R1A@?0A@EA@bad_cast@std@@8 ; std::bad_cast::`RTTI Base Class Array'
	DD	imagerel ??_R1A@?0A@EA@exception@std@@8
	ORG $+3
rdata$r	ENDS
;	COMDAT ??_7bad_alloc@std@@6B@
CONST	SEGMENT
??_7bad_alloc@std@@6B@ DQ FLAT:??_R4bad_alloc@std@@6B@	; std::bad_alloc::`vftable'
	DQ	FLAT:??_Ebad_alloc@std@@UEAAPEAXI@Z
	DQ	FLAT:?what@exception@std@@UEBAPEBDXZ
CONST	ENDS
;	COMDAT _CT??_R0?AVformat_error@std@@@8??0format_error@std@@QEAA@AEBV01@@Z24
xdata$x	SEGMENT
_CT??_R0?AVformat_error@std@@@8??0format_error@std@@QEAA@AEBV01@@Z24 DD 00H
	DD	imagerel ??_R0?AVformat_error@std@@@8
	DD	00H
	DD	0ffffffffH
	ORG $+4
	DD	018H
	DD	imagerel ??0format_error@std@@QEAA@AEBV01@@Z
xdata$x	ENDS
;	COMDAT ?_Adjustment@?CB@???$__to_chars@D@std@@YA?AU?$pair@PEADW4errc@std@@@1@QEAD0U__floating_decimal_64@1@W4chars_format@1@N@Z@4QBEB
CONST	SEGMENT
?_Adjustment@?CB@???$__to_chars@D@std@@YA?AU?$pair@PEADW4errc@std@@@1@QEAD0U__floating_decimal_64@1@W4chars_format@1@N@Z@4QBEB DB 00H ; `std::__to_chars<char>'::`33'::_Adjustment
	DB	00H
	DB	00H
	DB	00H
	DB	00H
	DB	00H
	DB	00H
	DB	00H
	DB	00H
	DB	00H
	DB	00H
	DB	00H
	DB	00H
	DB	00H
	DB	00H
	DB	00H
	DB	00H
	DB	00H
	DB	00H
	DB	00H
	DB	00H
	DB	00H
	DB	00H
	DB	01H
	DB	01H
	DB	00H
	DB	00H
	DB	00H
	DB	01H
	DB	01H
	DB	00H
	DB	01H
	DB	00H
	DB	01H
	DB	01H
	DB	01H
	DB	00H
	DB	01H
	DB	01H
	DB	01H
	DB	00H
	DB	00H
	DB	00H
	DB	00H
	DB	00H
	DB	01H
	DB	01H
	DB	00H
	DB	00H
	DB	01H
	DB	00H
	DB	01H
	DB	01H
	DB	01H
	DB	00H
	DB	00H
	DB	00H
	DB	00H
	DB	01H
	DB	01H
	DB	01H
	DB	01H
	DB	00H
	DB	00H
	DB	00H
	DB	01H
	DB	01H
	DB	01H
	DB	01H
	DB	00H
	DB	00H
	DB	00H
	DB	01H
	DB	01H
	DB	01H
	DB	01H
	DB	00H
	DB	01H
	DB	00H
	DB	01H
	DB	00H
	DB	01H
	DB	01H
	DB	00H
	DB	00H
	DB	00H
	DB	00H
	DB	01H
	DB	01H
	DB	01H
	DB	01H
	DB	00H
	DB	00H
	DB	00H
	DB	00H
	DB	00H
	DB	00H
	DB	00H
	DB	01H
	DB	01H
	DB	00H
	DB	01H
	DB	01H
	DB	00H
	DB	00H
	DB	01H
	DB	00H
	DB	01H
	DB	00H
	DB	01H
	DB	00H
	DB	01H
	DB	01H
	DB	00H
	DB	00H
	DB	00H
	DB	00H
	DB	00H
	DB	01H
	DB	01H
	DB	01H
	DB	00H
	DB	00H
	DB	01H
	DB	01H
	DB	01H
	DB	01H
	DB	01H
	DB	00H
	DB	01H
	DB	00H
	DB	01H
	DB	01H
	DB	00H
	DB	01H
	DB	01H
	DB	00H
	DB	00H
	DB	00H
	DB	00H
	DB	00H
	DB	00H
	DB	00H
	DB	00H
	DB	00H
	DB	01H
	DB	01H
	DB	01H
	DB	00H
	DB	00H
	DB	01H
	DB	00H
	DB	00H
	DB	01H
	DB	00H
	DB	00H
	DB	01H
	DB	01H
	DB	01H
	DB	01H
	DB	00H
	DB	00H
	DB	01H
	DB	01H
	DB	00H
	DB	01H
	DB	01H
	DB	00H
	DB	01H
	DB	01H
	DB	00H
	DB	01H
	DB	00H
	DB	00H
	DB	00H
	DB	01H
	DB	00H
	DB	00H
	DB	00H
	DB	01H
	DB	00H
	DB	01H
	DB	00H
	DB	01H
	DB	00H
	DB	01H
	DB	01H
	DB	01H
	DB	00H
	DB	00H
	DB	00H
	DB	00H
	DB	00H
	DB	00H
	DB	01H
	DB	01H
	DB	01H
	DB	01H
	DB	00H
	DB	00H
	DB	01H
	DB	00H
	DB	01H
	DB	01H
	DB	01H
	DB	00H
	DB	00H
	DB	00H
	DB	01H
	DB	00H
	DB	01H
	DB	01H
	DB	01H
	DB	01H
	DB	01H
	DB	01H
	DB	00H
	DB	01H
	DB	00H
	DB	01H
	DB	01H
	DB	00H
	DB	00H
	DB	00H
	DB	01H
	DB	01H
	DB	01H
	DB	00H
	DB	01H
	DB	01H
	DB	00H
	DB	00H
	DB	00H
	DB	01H
	DB	00H
	DB	00H
	DB	00H
	DB	01H
	DB	00H
	DB	01H
	DB	00H
	DB	00H
	DB	00H
	DB	00H
	DB	00H
	DB	00H
	DB	00H
	DB	01H
	DB	00H
	DB	01H
	DB	01H
	DB	00H
	DB	00H
	DB	01H
	DB	01H
	DB	01H
	DB	00H
	DB	00H
	DB	00H
	DB	01H
	DB	00H
	DB	01H
	DB	00H
	DB	00H
	DB	00H
	DB	00H
	DB	00H
	DB	01H
	DB	01H
	DB	00H
	DB	00H
	DB	01H
	DB	00H
	DB	01H
	DB	01H
	DB	01H
	DB	00H
	DB	00H
	DB	01H
	DB	00H
	DB	00H
	DB	00H
	DB	00H
	DB	01H
	DB	00H
	DB	01H
	DB	00H
	DB	00H
	DB	00H
	DB	00H
	DB	00H
	DB	01H
	DB	00H
	DB	01H
	DB	00H
	DB	01H
	DB	01H
	DB	00H
	DB	01H
	DB	00H
	DB	00H
	DB	00H
	DB	00H
	DB	00H
	DB	01H
	DB	01H
	DB	00H
	DB	01H
	DB	00H
CONST	ENDS
;	COMDAT ??_R0?AV?$numpunct@D@std@@@8
data$rs	SEGMENT
??_R0?AV?$numpunct@D@std@@@8 DQ FLAT:??_7type_info@@6B@	; std::numpunct<char> `RTTI Type Descriptor'
	DQ	0000000000000000H
	DB	'.?AV?$numpunct@D@std@@', 00H
data$rs	ENDS
;	COMDAT _CTA2?AVbad_cast@std@@
xdata$x	SEGMENT
_CTA2?AVbad_cast@std@@ DD 02H
	DD	imagerel _CT??_R0?AVbad_cast@std@@@8??0bad_cast@std@@QEAA@AEBV01@@Z24
	DD	imagerel _CT??_R0?AVexception@std@@@8??0exception@std@@QEAA@AEBV01@@Z24
xdata$x	ENDS
;	COMDAT ??_R17?0A@EA@_Crt_new_delete@std@@8
rdata$r	SEGMENT
??_R17?0A@EA@_Crt_new_delete@std@@8 DD imagerel ??_R0?AU_Crt_new_delete@std@@@8 ; std::_Crt_new_delete::`RTTI Base Class Descriptor at (8,-1,0,64)'
	DD	00H
	DD	08H
	DD	0ffffffffH
	DD	00H
	DD	040H
	DD	imagerel ??_R3_Crt_new_delete@std@@8
rdata$r	ENDS
;	COMDAT ??_R0?AU_Crt_new_delete@std@@@8
data$rs	SEGMENT
??_R0?AU_Crt_new_delete@std@@@8 DQ FLAT:??_7type_info@@6B@ ; std::_Crt_new_delete `RTTI Type Descriptor'
	DQ	0000000000000000H
	DB	'.?AU_Crt_new_delete@std@@', 00H
data$rs	ENDS
;	COMDAT ??_R1A@?0A@EA@?$_Fmt_buffer@D@std@@8
rdata$r	SEGMENT
??_R1A@?0A@EA@?$_Fmt_buffer@D@std@@8 DD imagerel ??_R0?AV?$_Fmt_buffer@D@std@@@8 ; std::_Fmt_buffer<char>::`RTTI Base Class Descriptor at (0,-1,0,64)'
	DD	00H
	DD	00H
	DD	0ffffffffH
	DD	00H
	DD	040H
	DD	imagerel ??_R3?$_Fmt_buffer@D@std@@8
rdata$r	ENDS
;	COMDAT ??_R0?AV?$_Fmt_buffer@D@std@@@8
data$rs	SEGMENT
??_R0?AV?$_Fmt_buffer@D@std@@@8 DQ FLAT:??_7type_info@@6B@ ; std::_Fmt_buffer<char> `RTTI Type Descriptor'
	DQ	0000000000000000H
	DB	'.?AV?$_Fmt_buffer@D@std@@', 00H
data$rs	ENDS
;	COMDAT ??_R0?AV_Facet_base@std@@@8
data$rs	SEGMENT
??_R0?AV_Facet_base@std@@@8 DQ FLAT:??_7type_info@@6B@	; std::_Facet_base `RTTI Type Descriptor'
	DQ	0000000000000000H
	DB	'.?AV_Facet_base@std@@', 00H
data$rs	ENDS
;	COMDAT ??_R1A@?0A@EA@bad_alloc@std@@8
rdata$r	SEGMENT
??_R1A@?0A@EA@bad_alloc@std@@8 DD imagerel ??_R0?AVbad_alloc@std@@@8 ; std::bad_alloc::`RTTI Base Class Descriptor at (0,-1,0,64)'
	DD	01H
	DD	00H
	DD	0ffffffffH
	DD	00H
	DD	040H
	DD	imagerel ??_R3bad_alloc@std@@8
rdata$r	ENDS
;	COMDAT ??_R1A@?0A@EA@_Facet_base@std@@8
rdata$r	SEGMENT
??_R1A@?0A@EA@_Facet_base@std@@8 DD imagerel ??_R0?AV_Facet_base@std@@@8 ; std::_Facet_base::`RTTI Base Class Descriptor at (0,-1,0,64)'
	DD	00H
	DD	00H
	DD	0ffffffffH
	DD	00H
	DD	040H
	DD	imagerel ??_R3_Facet_base@std@@8
rdata$r	ENDS
;	COMDAT ??_R1A@?0A@EA@exception@std@@8
rdata$r	SEGMENT
??_R1A@?0A@EA@exception@std@@8 DD imagerel ??_R0?AVexception@std@@@8 ; std::exception::`RTTI Base Class Descriptor at (0,-1,0,64)'
	DD	00H
	DD	00H
	DD	0ffffffffH
	DD	00H
	DD	040H
	DD	imagerel ??_R3exception@std@@8
rdata$r	ENDS
;	COMDAT ??_7bad_array_new_length@std@@6B@
CONST	SEGMENT
??_7bad_array_new_length@std@@6B@ DQ FLAT:??_R4bad_array_new_length@std@@6B@ ; std::bad_array_new_length::`vftable'
	DQ	FLAT:??_Ebad_array_new_length@std@@UEAAPEAXI@Z
	DQ	FLAT:?what@exception@std@@UEBAPEBDXZ
CONST	ENDS
;	COMDAT _CTA3?AVbad_array_new_length@std@@
xdata$x	SEGMENT
_CTA3?AVbad_array_new_length@std@@ DD 03H
	DD	imagerel _CT??_R0?AVbad_array_new_length@std@@@8??0bad_array_new_length@std@@QEAA@AEBV01@@Z24
	DD	imagerel _CT??_R0?AVbad_alloc@std@@@8??0bad_alloc@std@@QEAA@AEBV01@@Z24
	DD	imagerel _CT??_R0?AVexception@std@@@8??0exception@std@@QEAA@AEBV01@@Z24
xdata$x	ENDS
;	COMDAT ??_R0?AV?$_Fmt_iterator_buffer@V?$back_insert_iterator@V?$basic_string@DU?$char_traits@D@std@@V?$allocator@D@2@@std@@@std@@DU_Fmt_buffer_traits@2@@std@@@8
data$rs	SEGMENT
??_R0?AV?$_Fmt_iterator_buffer@V?$back_insert_iterator@V?$basic_string@DU?$char_traits@D@std@@V?$allocator@D@2@@std@@@std@@DU_Fmt_buffer_traits@2@@std@@@8 DQ FLAT:??_7type_info@@6B@ ; std::_Fmt_iterator_buffer<std::back_insert_iterator<std::basic_string<char,std::char_traits<char>,std::allocator<char> > >,char,std::_Fmt_buffer_traits> `RTTI Type Descriptor'
	DQ	0000000000000000H
	DB	'.?AV?$_Fmt_iterator_buffer@V?$back_insert_iterator@V?$ba'
	DB	'sic_string@DU?$char_traits@D@std@@V?$allocator@D@2@@std@@@std'
	DB	'@@DU_Fmt_buffer_traits@2@@std@@', 00H
data$rs	ENDS
;	COMDAT ??_R1A@?0A@EA@runtime_error@std@@8
rdata$r	SEGMENT
??_R1A@?0A@EA@runtime_error@std@@8 DD imagerel ??_R0?AVruntime_error@std@@@8 ; std::runtime_error::`RTTI Base Class Descriptor at (0,-1,0,64)'
	DD	01H
	DD	00H
	DD	0ffffffffH
	DD	00H
	DD	040H
	DD	imagerel ??_R3runtime_error@std@@8
rdata$r	ENDS
;	COMDAT ??_R3_Crt_new_delete@std@@8
rdata$r	SEGMENT
??_R3_Crt_new_delete@std@@8 DD 00H			; std::_Crt_new_delete::`RTTI Class Hierarchy Descriptor'
	DD	00H
	DD	01H
	DD	imagerel ??_R2_Crt_new_delete@std@@8
rdata$r	ENDS
;	COMDAT ??_R4format_error@std@@6B@
rdata$r	SEGMENT
??_R4format_error@std@@6B@ DD 01H			; std::format_error::`RTTI Complete Object Locator'
	DD	00H
	DD	00H
	DD	imagerel ??_R0?AVformat_error@std@@@8
	DD	imagerel ??_R3format_error@std@@8
	DD	imagerel ??_R4format_error@std@@6B@
rdata$r	ENDS
;	COMDAT ??_R2bad_alloc@std@@8
rdata$r	SEGMENT
??_R2bad_alloc@std@@8 DD imagerel ??_R1A@?0A@EA@bad_alloc@std@@8 ; std::bad_alloc::`RTTI Base Class Array'
	DD	imagerel ??_R1A@?0A@EA@exception@std@@8
	ORG $+3
rdata$r	ENDS
;	COMDAT ??_R1A@?0A@EA@bad_cast@std@@8
rdata$r	SEGMENT
??_R1A@?0A@EA@bad_cast@std@@8 DD imagerel ??_R0?AVbad_cast@std@@@8 ; std::bad_cast::`RTTI Base Class Descriptor at (0,-1,0,64)'
	DD	01H
	DD	00H
	DD	0ffffffffH
	DD	00H
	DD	040H
	DD	imagerel ??_R3bad_cast@std@@8
rdata$r	ENDS
;	COMDAT ??_R3_Facet_base@std@@8
rdata$r	SEGMENT
??_R3_Facet_base@std@@8 DD 00H				; std::_Facet_base::`RTTI Class Hierarchy Descriptor'
	DD	00H
	DD	01H
	DD	imagerel ??_R2_Facet_base@std@@8
rdata$r	ENDS
;	COMDAT ??_R4runtime_error@std@@6B@
rdata$r	SEGMENT
??_R4runtime_error@std@@6B@ DD 01H			; std::runtime_error::`RTTI Complete Object Locator'
	DD	00H
	DD	00H
	DD	imagerel ??_R0?AVruntime_error@std@@@8
	DD	imagerel ??_R3runtime_error@std@@8
	DD	imagerel ??_R4runtime_error@std@@6B@
rdata$r	ENDS
;	COMDAT ??_7format_error@std@@6B@
CONST	SEGMENT
??_7format_error@std@@6B@ DQ FLAT:??_R4format_error@std@@6B@ ; std::format_error::`vftable'
	DQ	FLAT:??_Eformat_error@std@@UEAAPEAXI@Z
	DQ	FLAT:?what@exception@std@@UEBAPEBDXZ
CONST	ENDS
;	COMDAT ??_7?$numpunct@D@std@@6B@
CONST	SEGMENT
??_7?$numpunct@D@std@@6B@ DQ FLAT:??_R4?$numpunct@D@std@@6B@ ; std::numpunct<char>::`vftable'
	DQ	FLAT:??_E?$numpunct@D@std@@MEAAPEAXI@Z
	DQ	FLAT:?_Incref@facet@locale@std@@UEAAXXZ
	DQ	FLAT:?_Decref@facet@locale@std@@UEAAPEAV_Facet_base@3@XZ
	DQ	FLAT:?do_decimal_point@?$numpunct@D@std@@MEBADXZ
	DQ	FLAT:?do_thousands_sep@?$numpunct@D@std@@MEBADXZ
	DQ	FLAT:?do_grouping@?$numpunct@D@std@@MEBA?AV?$basic_string@DU?$char_traits@D@std@@V?$allocator@D@2@@2@XZ
	DQ	FLAT:?do_falsename@?$numpunct@D@std@@MEBA?AV?$basic_string@DU?$char_traits@D@std@@V?$allocator@D@2@@2@XZ
	DQ	FLAT:?do_truename@?$numpunct@D@std@@MEBA?AV?$basic_string@DU?$char_traits@D@std@@V?$allocator@D@2@@2@XZ
CONST	ENDS
;	COMDAT ??_R3_Fmt_buffer_traits@std@@8
rdata$r	SEGMENT
??_R3_Fmt_buffer_traits@std@@8 DD 00H			; std::_Fmt_buffer_traits::`RTTI Class Hierarchy Descriptor'
	DD	00H
	DD	01H
	DD	imagerel ??_R2_Fmt_buffer_traits@std@@8
rdata$r	ENDS
;	COMDAT ??_R0?AU_Fmt_buffer_traits@std@@@8
data$rs	SEGMENT
??_R0?AU_Fmt_buffer_traits@std@@@8 DQ FLAT:??_7type_info@@6B@ ; std::_Fmt_buffer_traits `RTTI Type Descriptor'
	DQ	0000000000000000H
	DB	'.?AU_Fmt_buffer_traits@std@@', 00H
data$rs	ENDS
;	COMDAT ??_R0?AVbad_alloc@std@@@8
data$r	SEGMENT
??_R0?AVbad_alloc@std@@@8 DQ FLAT:??_7type_info@@6B@	; std::bad_alloc `RTTI Type Descriptor'
	DQ	0000000000000000H
	DB	'.?AVbad_alloc@std@@', 00H
data$r	ENDS
;	COMDAT ??_R2bad_array_new_length@std@@8
rdata$r	SEGMENT
??_R2bad_array_new_length@std@@8 DD imagerel ??_R1A@?0A@EA@bad_array_new_length@std@@8 ; std::bad_array_new_length::`RTTI Base Class Array'
	DD	imagerel ??_R1A@?0A@EA@bad_alloc@std@@8
	DD	imagerel ??_R1A@?0A@EA@exception@std@@8
	ORG $+3
rdata$r	ENDS
;	COMDAT ?_Adjustment@?CB@???$__to_chars@D@std@@YA?AU?$pair@PEADW4errc@std@@@1@QEAD0U__floating_decimal_32@1@W4chars_format@1@II@Z@4QBEB
CONST	SEGMENT
?_Adjustment@?CB@???$__to_chars@D@std@@YA?AU?$pair@PEADW4errc@std@@@1@QEAD0U__floating_decimal_32@1@W4chars_format@1@II@Z@4QBEB DB 00H ; `std::__to_chars<char>'::`33'::_Adjustment
	DB	00H
	DB	00H
	DB	00H
	DB	00H
	DB	00H
	DB	00H
	DB	00H
	DB	00H
	DB	00H
	DB	00H
	DB	01H
	DB	01H
	DB	01H
	DB	00H
	DB	01H
	DB	00H
	DB	01H
	DB	01H
	DB	01H
	DB	00H
	DB	00H
	DB	01H
	DB	01H
	DB	00H
	DB	01H
	DB	00H
	DB	01H
	DB	01H
	DB	00H
	DB	00H
	DB	01H
	DB	00H
	DB	01H
	DB	01H
	DB	00H
	DB	01H
	DB	01H
	DB	01H
CONST	ENDS
;	COMDAT ??_R4exception@std@@6B@
rdata$r	SEGMENT
??_R4exception@std@@6B@ DD 01H				; std::exception::`RTTI Complete Object Locator'
	DD	00H
	DD	00H
	DD	imagerel ??_R0?AVexception@std@@@8
	DD	imagerel ??_R3exception@std@@8
	DD	imagerel ??_R4exception@std@@6B@
rdata$r	ENDS
;	COMDAT ??_R0?AVruntime_error@std@@@8
data$r	SEGMENT
??_R0?AVruntime_error@std@@@8 DQ FLAT:??_7type_info@@6B@ ; std::runtime_error `RTTI Type Descriptor'
	DQ	0000000000000000H
	DB	'.?AVruntime_error@std@@', 00H
data$r	ENDS
;	COMDAT ??_R4?$_Fmt_iterator_buffer@V?$back_insert_iterator@V?$basic_string@DU?$char_traits@D@std@@V?$allocator@D@2@@std@@@std@@DU_Fmt_buffer_traits@2@@std@@6B@
rdata$r	SEGMENT
??_R4?$_Fmt_iterator_buffer@V?$back_insert_iterator@V?$basic_string@DU?$char_traits@D@std@@V?$allocator@D@2@@std@@@std@@DU_Fmt_buffer_traits@2@@std@@6B@ DD 01H ; std::_Fmt_iterator_buffer<std::back_insert_iterator<std::basic_string<char,std::char_traits<char>,std::allocator<char> > >,char,std::_Fmt_buffer_traits>::`RTTI Complete Object Locator'
	DD	00H
	DD	00H
	DD	imagerel ??_R0?AV?$_Fmt_iterator_buffer@V?$back_insert_iterator@V?$basic_string@DU?$char_traits@D@std@@V?$allocator@D@2@@std@@@std@@DU_Fmt_buffer_traits@2@@std@@@8
	DD	imagerel ??_R3?$_Fmt_iterator_buffer@V?$back_insert_iterator@V?$basic_string@DU?$char_traits@D@std@@V?$allocator@D@2@@std@@@std@@DU_Fmt_buffer_traits@2@@std@@8
	DD	imagerel ??_R4?$_Fmt_iterator_buffer@V?$back_insert_iterator@V?$basic_string@DU?$char_traits@D@std@@V?$allocator@D@2@@std@@@std@@DU_Fmt_buffer_traits@2@@std@@6B@
rdata$r	ENDS
;	COMDAT ??_C@_0BI@KLAHEKGE@String?5pointer?5is?5null?4@
CONST	SEGMENT
??_C@_0BI@KLAHEKGE@String?5pointer?5is?5null?4@ DB 'String pointer is nul'
	DB	'l.', 00H					; `string'
CONST	ENDS
;	COMDAT ??_C@_0BE@JHBJMIJI@Argument?5not?5found?4@
CONST	SEGMENT
??_C@_0BE@JHBJMIJI@Argument?5not?5found?4@ DB 'Argument not found.', 00H ; `string'
CONST	ENDS
;	COMDAT ??_C@_03MJEJAJCM@?2x?$HL@
CONST	SEGMENT
??_C@_03MJEJAJCM@?2x?$HL@ DB '\x{', 00H			; `string'
CONST	ENDS
;	COMDAT ??_C@_17MDBLGOCO@?$AA?2?$AAx?$AA?$HL@
CONST	SEGMENT
??_C@_17MDBLGOCO@?$AA?2?$AAx?$AA?$HL@ DB '\', 00H, 'x', 00H, '{', 00H, 00H
	DB	00H						; `string'
CONST	ENDS
;	COMDAT ??_C@_03MBJBJKHP@?2u?$HL@
CONST	SEGMENT
??_C@_03MBJBJKHP@?2u?$HL@ DB '\u{', 00H			; `string'
CONST	ENDS
;	COMDAT ??_C@_17HPIFHNPA@?$AA?2?$AAu?$AA?$HL@
CONST	SEGMENT
??_C@_17HPIFHNPA@?$AA?2?$AAu?$AA?$HL@ DB '\', 00H, 'u', 00H, '{', 00H, 00H
	DB	00H						; `string'
CONST	ENDS
;	COMDAT ??_C@_02HDBGODGB@?2?2@
CONST	SEGMENT
??_C@_02HDBGODGB@?2?2@ DB '\\', 00H			; `string'
CONST	ENDS
;	COMDAT ??_C@_15LEKKCGMK@?$AA?2?$AA?2@
CONST	SEGMENT
??_C@_15LEKKCGMK@?$AA?2?$AA?2@ DB '\', 00H, '\', 00H, 00H, 00H ; `string'
CONST	ENDS
;	COMDAT ??_C@_02HIBBOKEN@?2r@
CONST	SEGMENT
??_C@_02HIBBOKEN@?2r@ DB '\r', 00H			; `string'
CONST	ENDS
;	COMDAT ??_C@_15PEEHPOMH@?$AA?2?$AAr@
CONST	SEGMENT
??_C@_15PEEHPOMH@?$AA?2?$AAr@ DB '\', 00H, 'r', 00H, 00H, 00H ; `string'
CONST	ENDS
;	COMDAT ??_C@_02JOGGLHBA@?2n@
CONST	SEGMENT
??_C@_02JOGGLHBA@?2n@ DB '\n', 00H			; `string'
CONST	ENDS
;	COMDAT ??_C@_15OOIIBGOA@?$AA?2?$AAn@
CONST	SEGMENT
??_C@_15OOIIBGOA@?$AA?2?$AAn@ DB '\', 00H, 'n', 00H, 00H, 00H ; `string'
CONST	ENDS
;	COMDAT ??_C@_02COELENML@?2t@
CONST	SEGMENT
??_C@_02COELENML@?2t@ DB '\t', 00H			; `string'
CONST	ENDS
;	COMDAT ??_C@_15NBCMKBBL@?$AA?2?$AAt@
CONST	SEGMENT
??_C@_15NBCMKBBL@?$AA?2?$AAt@ DB '\', 00H, 't', 00H, 00H, 00H ; `string'
CONST	ENDS
;	COMDAT ??_C@_01GBGANLPD@0@
CONST	SEGMENT
??_C@_01GBGANLPD@0@ DB '0', 00H				; `string'
CONST	ENDS
;	COMDAT ??_C@_02FGLHBECB@0X@
CONST	SEGMENT
??_C@_02FGLHBECB@0X@ DB '0X', 00H			; `string'
CONST	ENDS
;	COMDAT ??_C@_02MDDDDAID@0x@
CONST	SEGMENT
??_C@_02MDDDDAID@0x@ DB '0x', 00H			; `string'
CONST	ENDS
;	COMDAT ??_C@_02OGJKOOPK@0B@
CONST	SEGMENT
??_C@_02OGJKOOPK@0B@ DB '0B', 00H			; `string'
CONST	ENDS
;	COMDAT ??_C@_02HDBOMKFI@0b@
CONST	SEGMENT
??_C@_02HDBOMKFI@0b@ DB '0b', 00H			; `string'
CONST	ENDS
;	COMDAT ??_C@_0CC@OGKFJOLL@integral?5cannot?5be?5stored?5in?5ch@
CONST	SEGMENT
??_C@_0CC@OGKFJOLL@integral?5cannot?5be?5stored?5in?5ch@ DB 'integral can'
	DB	'not be stored in char', 00H			; `string'
CONST	ENDS
;	COMDAT ??_C@_0CM@KHNKLFDD@Dynamic?5width?5or?5precision?5inde@
CONST	SEGMENT
??_C@_0CM@KHNKLFDD@Dynamic?5width?5or?5precision?5inde@ DB 'Dynamic width'
	DB	' or precision index too large.', 00H	; `string'
CONST	ENDS
;	COMDAT ??_C@_0BC@JOAOKPFE@Number?5is?5too?5big@
CONST	SEGMENT
??_C@_0BC@JOAOKPFE@Number?5is?5too?5big@ DB 'Number is too big', 00H ; `string'
CONST	ENDS
;	COMDAT ??_C@_0BE@DEGOCOHL@Negative?5precision?4@
CONST	SEGMENT
??_C@_0BE@DEGOCOHL@Negative?5precision?4@ DB 'Negative precision.', 00H ; `string'
CONST	ENDS
;	COMDAT ??_C@_0BN@DNNEEKIC@Precision?5is?5not?5an?5integer?4@
CONST	SEGMENT
??_C@_0BN@DNNEEKIC@Precision?5is?5not?5an?5integer?4@ DB 'Precision is no'
	DB	't an integer.', 00H				; `string'
CONST	ENDS
;	COMDAT ??_C@_0BA@INGMONDA@Negative?5width?4@
CONST	SEGMENT
??_C@_0BA@INGMONDA@Negative?5width?4@ DB 'Negative width.', 00H ; `string'
CONST	ENDS
;	COMDAT ??_C@_0BJ@FLMOJPKL@Width?5is?5not?5an?5integer?4@
CONST	SEGMENT
??_C@_0BJ@FLMOJPKL@Width?5is?5not?5an?5integer?4@ DB 'Width is not an int'
	DB	'eger.', 00H					; `string'
CONST	ENDS
;	COMDAT ??_C@_0DB@FGJJGOLD@Can?5not?5switch?5from?5automatic?5t@
CONST	SEGMENT
??_C@_0DB@FGJJGOLD@Can?5not?5switch?5from?5automatic?5t@ DB 'Can not swit'
	DB	'ch from automatic to manual indexing', 00H	; `string'
CONST	ENDS
;	COMDAT ??_C@_0CO@ILLNLEBH@Precision?5not?5allowed?5for?5this?5@
CONST	SEGMENT
??_C@_0CO@ILLNLEBH@Precision?5not?5allowed?5for?5this?5@ DB 'Precision no'
	DB	't allowed for this argument type.', 00H	; `string'
CONST	ENDS
;	COMDAT ??_C@_0BJ@FNNNKMGD@Invalid?5fill?5?$CItoo?5long?$CJ?4@
CONST	SEGMENT
??_C@_0BJ@FNNNKMGD@Invalid?5fill?5?$CItoo?5long?$CJ?4@ DB 'Invalid fill ('
	DB	'too long).', 00H				; `string'
CONST	ENDS
;	COMDAT ??_C@_0BN@CAABEHAA@Missing?5precision?5specifier?4@
CONST	SEGMENT
??_C@_0BN@CAABEHAA@Missing?5precision?5specifier?4@ DB 'Missing precision'
	DB	' specifier.', 00H				; `string'
CONST	ENDS
;	COMDAT ??_C@_0BL@KNEDAEPA@invalid?5fill?5character?5?8?$HL?8@
CONST	SEGMENT
??_C@_0BL@KNEDAEPA@invalid?5fill?5character?5?8?$HL?8@ DB 'invalid fill c'
	DB	'haracter ''{''', 00H			; `string'
CONST	ENDS
;	COMDAT ??_C@_0BD@GHJPJCGO@Number?5is?5too?5big?4@
CONST	SEGMENT
??_C@_0BD@GHJPJCGO@Number?5is?5too?5big?4@ DB 'Number is too big.', 00H ; `string'
CONST	ENDS
;	COMDAT ??_C@_05JHILFKJA@0e?$CL00@
CONST	SEGMENT
??_C@_05JHILFKJA@0e?$CL00@ DB '0e+00', 00H		; `string'
CONST	ENDS
;	COMDAT ??_C@_0DI@JFEOALGI@Modifier?5requires?5an?5integer?5pr@
CONST	SEGMENT
??_C@_0DI@JFEOALGI@Modifier?5requires?5an?5integer?5pr@ DB 'Modifier requ'
	DB	'ires an integer presentation type for bool', 00H ; `string'
CONST	ENDS
;	COMDAT ??_C@_0CG@LHDOJLDP@Invalid?5presentation?5type?5for?5p@
CONST	SEGMENT
??_C@_0CG@LHDOJLDP@Invalid?5presentation?5type?5for?5p@ DB 'Invalid prese'
	DB	'ntation type for pointer', 00H		; `string'
CONST	ENDS
;	COMDAT ??_C@_0CF@MMFFCGKF@Invalid?5presentation?5type?5for?5s@
CONST	SEGMENT
??_C@_0CF@MMFFCGKF@Invalid?5presentation?5type?5for?5s@ DB 'Invalid prese'
	DB	'ntation type for string', 00H		; `string'
CONST	ENDS
;	COMDAT ??_C@_0CN@EEOMCCM@Invalid?5presentation?5type?5for?5f@
CONST	SEGMENT
??_C@_0CN@EEOMCCM@Invalid?5presentation?5type?5for?5f@ DB 'Invalid presen'
	DB	'tation type for floating-point', 00H	; `string'
CONST	ENDS
;	COMDAT ??_C@_0CG@PIIJGCKO@Invalid?5presentation?5type?5for?5i@
CONST	SEGMENT
??_C@_0CG@PIIJGCKO@Invalid?5presentation?5type?5for?5i@ DB 'Invalid prese'
	DB	'ntation type for integer', 00H		; `string'
CONST	ENDS
;	COMDAT ??_C@_0CD@IFHOEGFC@Invalid?5presentation?5type?5for?5c@
CONST	SEGMENT
??_C@_0CD@IFHOEGFC@Invalid?5presentation?5type?5for?5c@ DB 'Invalid prese'
	DB	'ntation type for char', 00H			; `string'
CONST	ENDS
;	COMDAT ??_C@_0CD@PLBGEFIO@Invalid?5presentation?5type?5for?5b@
CONST	SEGMENT
??_C@_0CD@PLBGEFIO@Invalid?5presentation?5type?5for?5b@ DB 'Invalid prese'
	DB	'ntation type for bool', 00H			; `string'
CONST	ENDS
;	COMDAT ??_C@_0CE@OLPMMFCN@Invalid?5presentation?5type?5speci@
CONST	SEGMENT
??_C@_0CE@OLPMMFCN@Invalid?5presentation?5type?5speci@ DB 'Invalid presen'
	DB	'tation type specifier', 00H			; `string'
CONST	ENDS
;	COMDAT ??_C@_0BM@ONFDPAFF@Invalid?5type?5specification?4@
CONST	SEGMENT
??_C@_0BM@ONFDPAFF@Invalid?5type?5specification?4@ DB 'Invalid type speci'
	DB	'fication.', 00H				; `string'
CONST	ENDS
;	COMDAT ??_C@_0CM@EFKJINMJ@Format?5specifier?5requires?5numer@
CONST	SEGMENT
??_C@_0CM@EFKJINMJ@Format?5specifier?5requires?5numer@ DB 'Format specifi'
	DB	'er requires numeric argument.', 00H		; `string'
CONST	ENDS
;	COMDAT ??_C@_0DB@GIGELLBG@Can?5not?5switch?5from?5manual?5to?5a@
CONST	SEGMENT
??_C@_0DB@GIGELLBG@Can?5not?5switch?5from?5manual?5to?5a@ DB 'Can not swi'
	DB	'tch from manual to automatic indexing', 00H	; `string'
CONST	ENDS
;	COMDAT ??_C@_0BK@NMCHMIGI@Unknown?5format?5specifier?4@
CONST	SEGMENT
??_C@_0BK@NMCHMIGI@Unknown?5format?5specifier?4@ DB 'Unknown format speci'
	DB	'fier.', 00H					; `string'
CONST	ENDS
;	COMDAT ??_C@_0BH@MCHHCMKF@Invalid?5format?5string?4@
CONST	SEGMENT
??_C@_0BH@MCHHCMKF@Invalid?5format?5string?4@ DB 'Invalid format string.', 00H ; `string'
CONST	ENDS
;	COMDAT ??_C@_04BIJNIPAK@0p?$CL0@
CONST	SEGMENT
??_C@_04BIJNIPAK@0p?$CL0@ DB '0p+0', 00H		; `string'
CONST	ENDS
;	COMDAT ??_C@_0CM@HMOABGNI@Invalid?5encoded?5character?5in?5fo@
CONST	SEGMENT
??_C@_0CM@HMOABGNI@Invalid?5encoded?5character?5in?5fo@ DB 'Invalid encod'
	DB	'ed character in format string.', 00H	; `string'
CONST	ENDS
;	COMDAT ??_C@_0BO@FFAGMLDI@Missing?5?8?$HN?8?5in?5format?5string?4@
CONST	SEGMENT
??_C@_0BO@FFAGMLDI@Missing?5?8?$HN?8?5in?5format?5string?4@ DB 'Missing '''
	DB	'}'' in format string.', 00H			; `string'
CONST	ENDS
;	COMDAT ??_C@_0CA@EOADLFNL@Unmatched?5?8?$HN?8?5in?5format?5string?4@
CONST	SEGMENT
??_C@_0CA@EOADLFNL@Unmatched?5?8?$HN?8?5in?5format?5string?4@ DB 'Unmatch'
	DB	'ed ''}'' in format string.', 00H		; `string'
CONST	ENDS
;	COMDAT ??_C@_04CGFJFPFD@none@
CONST	SEGMENT
??_C@_04CGFJFPFD@none@ DB 'none', 00H			; `string'
CONST	ENDS
;	COMDAT ??_C@_1BK@MHIKGOKE@?$AA?3?$AAA?$AAM?$AA?3?$AAa?$AAm?$AA?3?$AAP?$AAM?$AA?3?$AAp?$AAm@
CONST	SEGMENT
??_C@_1BK@MHIKGOKE@?$AA?3?$AAA?$AAM?$AA?3?$AAa?$AAm?$AA?3?$AAP?$AAM?$AA?3?$AAp?$AAm@ DB ':'
	DB	00H, 'A', 00H, 'M', 00H, ':', 00H, 'a', 00H, 'm', 00H, ':', 00H
	DB	'P', 00H, 'M', 00H, ':', 00H, 'p', 00H, 'm', 00H, 00H, 00H ; `string'
CONST	ENDS
;	COMDAT ??_C@_09IPFBKMDL@nan?$CIsnan?$CJ@
CONST	SEGMENT
??_C@_09IPFBKMDL@nan?$CIsnan?$CJ@ DB 'nan(snan)', 00H	; `string'
CONST	ENDS
;	COMDAT ??_C@_03LHCJEHON@nan@
CONST	SEGMENT
??_C@_03LHCJEHON@nan@ DB 'nan', 00H			; `string'
CONST	ENDS
;	COMDAT ??_C@_08OFCDMILK@nan?$CIind?$CJ@
CONST	SEGMENT
??_C@_08OFCDMILK@nan?$CIind?$CJ@ DB 'nan(ind)', 00H	; `string'
CONST	ENDS
;	COMDAT ??_C@_03OJHLLCGB@inf@
CONST	SEGMENT
??_C@_03OJHLLCGB@inf@ DB 'inf', 00H			; `string'
CONST	ENDS
;	COMDAT ??_C@_0BI@CFPLBAOH@invalid?5string?5position@
CONST	SEGMENT
??_C@_0BI@CFPLBAOH@invalid?5string?5position@ DB 'invalid string position'
	DB	00H						; `string'
CONST	ENDS
;	COMDAT ??_C@_0N@LPFKKEBD@?3AM?3am?3PM?3pm@
CONST	SEGMENT
??_C@_0N@LPFKKEBD@?3AM?3am?3PM?3pm@ DB ':AM:am:PM:pm', 00H ; `string'
CONST	ENDS
;	COMDAT ??_C@_0BB@NBBIIIOC@Inputs?5a?5value?3?5@
CONST	SEGMENT
??_C@_0BB@NBBIIIOC@Inputs?5a?5value?3?5@ DB 'Inputs a value: ', 00H ; `string'
CONST	ENDS
;	COMDAT ??_C@_09ENEMMIOP@?5?$DM?9?5input@
CONST	SEGMENT
??_C@_09ENEMMIOP@?5?$DM?9?5input@ DB ' <- input', 00H	; `string'
CONST	ENDS
;	COMDAT ??_C@_0L@KMBNFLMG@?$HL?$HN?5?$DM?9?5none@
CONST	SEGMENT
??_C@_0L@KMBNFLMG@?$HL?$HN?5?$DM?9?5none@ DB '{} <- none', 00H ; `string'
CONST	ENDS
;	COMDAT ??_C@_08PPCHCFBL@?5?$DM?9?5none@
CONST	SEGMENT
??_C@_08PPCHCFBL@?5?$DM?9?5none@ DB ' <- none', 00H	; `string'
CONST	ENDS
;	COMDAT ??_C@_0BB@BPFBMCIH@starts?5none?5test@
CONST	SEGMENT
??_C@_0BB@BPFBMCIH@starts?5none?5test@ DB 'starts none test', 00H ; `string'
CONST	ENDS
;	COMDAT ??_C@_00CNPNBAHC@@
CONST	SEGMENT
??_C@_00CNPNBAHC@@ DB 00H				; `string'
CONST	ENDS
;	COMDAT ??_C@_04LOAJBDKD@true@
CONST	SEGMENT
??_C@_04LOAJBDKD@true@ DB 'true', 00H			; `string'
CONST	ENDS
;	COMDAT ??_C@_05LAPONLG@false@
CONST	SEGMENT
??_C@_05LAPONLG@false@ DB 'false', 00H			; `string'
CONST	ENDS
;	COMDAT ??_C@_08EPJLHIJG@bad?5cast@
CONST	SEGMENT
??_C@_08EPJLHIJG@bad?5cast@ DB 'bad cast', 00H		; `string'
CONST	ENDS
;	COMDAT ??_C@_0BA@JFNIOLAK@string?5too?5long@
CONST	SEGMENT
??_C@_0BA@JFNIOLAK@string?5too?5long@ DB 'string too long', 00H ; `string'
CONST	ENDS
;	COMDAT ??_C@_0BF@KINCDENJ@bad?5array?5new?5length@
CONST	SEGMENT
??_C@_0BF@KINCDENJ@bad?5array?5new?5length@ DB 'bad array new length', 00H ; `string'
CONST	ENDS
;	COMDAT ??_C@_0BC@EOODALEL@Unknown?5exception@
CONST	SEGMENT
??_C@_0BC@EOODALEL@Unknown?5exception@ DB 'Unknown exception', 00H ; `string'
CONST	ENDS
;	COMDAT ??_C@_04OEBBALID@e?$CL00@
CONST	SEGMENT
??_C@_04OEBBALID@e?$CL00@ DB 'e+00', 00H		; `string'
CONST	ENDS
PUBLIC	??$_On_dynamic_precision@_K@?$_Specs_handler@V?$basic_format_parse_context@D@std@@V?$basic_format_context@V?$back_insert_iterator@V?$_Fmt_buffer@D@std@@@std@@D@2@@std@@QEAAX_K@Z ; std::_Specs_handler<std::basic_format_parse_context<char>,std::basic_format_context<std::back_insert_iterator<std::_Fmt_buffer<char> >,char> >::_On_dynamic_precision<unsigned __int64>
PUBLIC	??$_On_dynamic_precision@U_Auto_id_tag@std@@@?$_Specs_handler@V?$basic_format_parse_context@D@std@@V?$basic_format_context@V?$back_insert_iterator@V?$_Fmt_buffer@D@std@@@std@@D@2@@std@@QEAAXU_Auto_id_tag@1@@Z ; std::_Specs_handler<std::basic_format_parse_context<char>,std::basic_format_context<std::back_insert_iterator<std::_Fmt_buffer<char> >,char> >::_On_dynamic_precision<std::_Auto_id_tag>
PUBLIC	?_Get_arg@?$_Specs_handler@V?$basic_format_parse_context@D@std@@V?$basic_format_context@V?$back_insert_iterator@V?$_Fmt_buffer@D@std@@@std@@D@2@@std@@AEAA?AV?$basic_format_arg@V?$basic_format_context@V?$back_insert_iterator@V?$_Fmt_buffer@D@std@@@std@@D@std@@@2@U_Auto_id_tag@2@@Z ; std::_Specs_handler<std::basic_format_parse_context<char>,std::basic_format_context<std::back_insert_iterator<std::_Fmt_buffer<char> >,char> >::_Get_arg
PUBLIC	?_Get_arg@?$_Specs_handler@V?$basic_format_parse_context@D@std@@V?$basic_format_context@V?$back_insert_iterator@V?$_Fmt_buffer@D@std@@@std@@D@2@@std@@AEAA?AV?$basic_format_arg@V?$basic_format_context@V?$back_insert_iterator@V?$_Fmt_buffer@D@std@@@std@@D@std@@@2@_K@Z ; std::_Specs_handler<std::basic_format_parse_context<char>,std::basic_format_context<std::back_insert_iterator<std::_Fmt_buffer<char> >,char> >::_Get_arg
PUBLIC	??$_On_dynamic_precision@_K@?$_Specs_checker@V?$_Specs_handler@V?$basic_format_parse_context@D@std@@V?$basic_format_context@V?$back_insert_iterator@V?$_Fmt_buffer@D@std@@@std@@D@2@@std@@@std@@QEAAX_K@Z ; std::_Specs_checker<std::_Specs_handler<std::basic_format_parse_context<char>,std::basic_format_context<std::back_insert_iterator<std::_Fmt_buffer<char> >,char> > >::_On_dynamic_precision<unsigned __int64>
PUBLIC	??$_On_dynamic_precision@U_Auto_id_tag@std@@@?$_Specs_checker@V?$_Specs_handler@V?$basic_format_parse_context@D@std@@V?$basic_format_context@V?$back_insert_iterator@V?$_Fmt_buffer@D@std@@@std@@D@2@@std@@@std@@QEAAXU_Auto_id_tag@1@@Z ; std::_Specs_checker<std::_Specs_handler<std::basic_format_parse_context<char>,std::basic_format_context<std::back_insert_iterator<std::_Fmt_buffer<char> >,char> > >::_On_dynamic_precision<std::_Auto_id_tag>
PUBLIC	??$_On_dynamic_width@_K@?$_Specs_handler@V?$basic_format_parse_context@D@std@@V?$basic_format_context@V?$back_insert_iterator@V?$_Fmt_buffer@D@std@@@std@@D@2@@std@@QEAAX_K@Z ; std::_Specs_handler<std::basic_format_parse_context<char>,std::basic_format_context<std::back_insert_iterator<std::_Fmt_buffer<char> >,char> >::_On_dynamic_width<unsigned __int64>
PUBLIC	??$_On_dynamic_width@U_Auto_id_tag@std@@@?$_Specs_handler@V?$basic_format_parse_context@D@std@@V?$basic_format_context@V?$back_insert_iterator@V?$_Fmt_buffer@D@std@@@std@@D@2@@std@@QEAAXU_Auto_id_tag@1@@Z ; std::_Specs_handler<std::basic_format_parse_context<char>,std::basic_format_context<std::back_insert_iterator<std::_Fmt_buffer<char> >,char> >::_On_dynamic_width<std::_Auto_id_tag>
PUBLIC	?_On_auto_id@?$_Width_adapter@DAEAV?$_Specs_checker@V?$_Specs_handler@V?$basic_format_parse_context@D@std@@V?$basic_format_context@V?$back_insert_iterator@V?$_Fmt_buffer@D@std@@@std@@D@2@@std@@@std@@@std@@QEAAXXZ ; std::_Width_adapter<char,std::_Specs_checker<std::_Specs_handler<std::basic_format_parse_context<char>,std::basic_format_context<std::back_insert_iterator<std::_Fmt_buffer<char> >,char> > > &>::_On_auto_id
PUBLIC	?_On_manual_id@?$_Width_adapter@DAEAV?$_Specs_checker@V?$_Specs_handler@V?$basic_format_parse_context@D@std@@V?$basic_format_context@V?$back_insert_iterator@V?$_Fmt_buffer@D@std@@@std@@D@2@@std@@@std@@@std@@QEAAX_K@Z ; std::_Width_adapter<char,std::_Specs_checker<std::_Specs_handler<std::basic_format_parse_context<char>,std::basic_format_context<std::back_insert_iterator<std::_Fmt_buffer<char> >,char> > > &>::_On_manual_id
PUBLIC	?_On_auto_id@?$_Precision_adapter@DAEAV?$_Specs_checker@V?$_Specs_handler@V?$basic_format_parse_context@D@std@@V?$basic_format_context@V?$back_insert_iterator@V?$_Fmt_buffer@D@std@@@std@@D@2@@std@@@std@@@std@@QEAAXXZ ; std::_Precision_adapter<char,std::_Specs_checker<std::_Specs_handler<std::basic_format_parse_context<char>,std::basic_format_context<std::back_insert_iterator<std::_Fmt_buffer<char> >,char> > > &>::_On_auto_id
PUBLIC	?_On_manual_id@?$_Precision_adapter@DAEAV?$_Specs_checker@V?$_Specs_handler@V?$basic_format_parse_context@D@std@@V?$basic_format_context@V?$back_insert_iterator@V?$_Fmt_buffer@D@std@@@std@@D@2@@std@@@std@@@std@@QEAAX_K@Z ; std::_Precision_adapter<char,std::_Specs_checker<std::_Specs_handler<std::basic_format_parse_context<char>,std::basic_format_context<std::back_insert_iterator<std::_Fmt_buffer<char> >,char> > > &>::_On_manual_id
PUBLIC	??$_Parse_arg_id@DU?$_Precision_adapter@DAEAV?$_Specs_checker@V?$_Specs_handler@V?$basic_format_parse_context@D@std@@V?$basic_format_context@V?$back_insert_iterator@V?$_Fmt_buffer@D@std@@@std@@D@2@@std@@@std@@@std@@@std@@YAPEBDPEBD0$$QEAU?$_Precision_adapter@DAEAV?$_Specs_checker@V?$_Specs_handler@V?$basic_format_parse_context@D@std@@V?$basic_format_context@V?$back_insert_iterator@V?$_Fmt_buffer@D@std@@@std@@D@2@@std@@@std@@@0@@Z ; std::_Parse_arg_id<char,std::_Precision_adapter<char,std::_Specs_checker<std::_Specs_handler<std::basic_format_parse_context<char>,std::basic_format_context<std::back_insert_iterator<std::_Fmt_buffer<char> >,char> > > &> >
PUBLIC	??$_Parse_arg_id@DU?$_Width_adapter@DAEAV?$_Specs_checker@V?$_Specs_handler@V?$basic_format_parse_context@D@std@@V?$basic_format_context@V?$back_insert_iterator@V?$_Fmt_buffer@D@std@@@std@@D@2@@std@@@std@@@std@@@std@@YAPEBDPEBD0$$QEAU?$_Width_adapter@DAEAV?$_Specs_checker@V?$_Specs_handler@V?$basic_format_parse_context@D@std@@V?$basic_format_context@V?$back_insert_iterator@V?$_Fmt_buffer@D@std@@@std@@D@2@@std@@@std@@@0@@Z ; std::_Parse_arg_id<char,std::_Width_adapter<char,std::_Specs_checker<std::_Specs_handler<std::basic_format_parse_context<char>,std::basic_format_context<std::back_insert_iterator<std::_Fmt_buffer<char> >,char> > > &> >
PUBLIC	??$forward@PEBD@std@@YA$$QEAPEBDAEAPEBD@Z	; std::forward<char const *>
PUBLIC	??$_Countl_zero_bsr@_K@std@@YAH_K@Z		; std::_Countl_zero_bsr<unsigned __int64>
PUBLIC	??$_Countl_zero_lzcnt@_K@std@@YAH_K@Z		; std::_Countl_zero_lzcnt<unsigned __int64>
PUBLIC	?_Check_precision@?$_Specs_checker@V?$_Specs_handler@V?$basic_format_parse_context@D@std@@V?$basic_format_context@V?$back_insert_iterator@V?$_Fmt_buffer@D@std@@@std@@D@2@@std@@@std@@QEBAXXZ ; std::_Specs_checker<std::_Specs_handler<std::basic_format_parse_context<char>,std::basic_format_context<std::back_insert_iterator<std::_Fmt_buffer<char> >,char> > >::_Check_precision
PUBLIC	?_Seek_to@?$_String_view_iterator@U?$char_traits@D@std@@@std@@QEAAXPEBD@Z ; std::_String_view_iterator<std::char_traits<char> >::_Seek_to
PUBLIC	?_On_precision@?$_Specs_checker@V?$_Specs_handler@V?$basic_format_parse_context@D@std@@V?$basic_format_context@V?$back_insert_iterator@V?$_Fmt_buffer@D@std@@@std@@D@2@@std@@@std@@QEAAXH@Z ; std::_Specs_checker<std::_Specs_handler<std::basic_format_parse_context<char>,std::basic_format_context<std::back_insert_iterator<std::_Fmt_buffer<char> >,char> > >::_On_precision
PUBLIC	??0?$_Width_adapter@DAEAV?$_Specs_checker@V?$_Specs_handler@V?$basic_format_parse_context@D@std@@V?$basic_format_context@V?$back_insert_iterator@V?$_Fmt_buffer@D@std@@@std@@D@2@@std@@@std@@@std@@QEAA@AEAV?$_Specs_checker@V?$_Specs_handler@V?$basic_format_parse_context@D@std@@V?$basic_format_context@V?$back_insert_iterator@V?$_Fmt_buffer@D@std@@@std@@D@2@@std@@@1@@Z ; std::_Width_adapter<char,std::_Specs_checker<std::_Specs_handler<std::basic_format_parse_context<char>,std::basic_format_context<std::back_insert_iterator<std::_Fmt_buffer<char> >,char> > > &>::_Width_adapter<char,std::_Specs_checker<std::_Specs_handler<std::basic_format_parse_context<char>,std::basic_format_context<std::back_insert_iterator<std::_Fmt_buffer<char> >,char> > > &>
PUBLIC	??0?$_Precision_adapter@DAEAV?$_Specs_checker@V?$_Specs_handler@V?$basic_format_parse_context@D@std@@V?$basic_format_context@V?$back_insert_iterator@V?$_Fmt_buffer@D@std@@@std@@D@2@@std@@@std@@@std@@QEAA@AEAV?$_Specs_checker@V?$_Specs_handler@V?$basic_format_parse_context@D@std@@V?$basic_format_context@V?$back_insert_iterator@V?$_Fmt_buffer@D@std@@@std@@D@2@@std@@@1@@Z ; std::_Precision_adapter<char,std::_Specs_checker<std::_Specs_handler<std::basic_format_parse_context<char>,std::basic_format_context<std::back_insert_iterator<std::_Fmt_buffer<char> >,char> > > &>::_Precision_adapter<char,std::_Specs_checker<std::_Specs_handler<std::basic_format_parse_context<char>,std::basic_format_context<std::back_insert_iterator<std::_Fmt_buffer<char> >,char> > > &>
PUBLIC	??$_Fmt_write@DV?$back_insert_iterator@V?$_Fmt_buffer@D@std@@@std@@O@__p2286@std@@YA?AV?$back_insert_iterator@V?$_Fmt_buffer@D@std@@@1@V21@O@Z ; std::__p2286::_Fmt_write<char,std::back_insert_iterator<std::_Fmt_buffer<char> >,long double>
PUBLIC	??$_Fmt_write@DV?$back_insert_iterator@V?$_Fmt_buffer@D@std@@@std@@N@__p2286@std@@YA?AV?$back_insert_iterator@V?$_Fmt_buffer@D@std@@@1@V21@N@Z ; std::__p2286::_Fmt_write<char,std::back_insert_iterator<std::_Fmt_buffer<char> >,double>
PUBLIC	??$_Fmt_write@DV?$back_insert_iterator@V?$_Fmt_buffer@D@std@@@std@@M@__p2286@std@@YA?AV?$back_insert_iterator@V?$_Fmt_buffer@D@std@@@1@V21@M@Z ; std::__p2286::_Fmt_write<char,std::back_insert_iterator<std::_Fmt_buffer<char> >,float>
PUBLIC	??$_Fmt_write@DV?$back_insert_iterator@V?$_Fmt_buffer@D@std@@@std@@_K@__p2286@std@@YA?AV?$back_insert_iterator@V?$_Fmt_buffer@D@std@@@1@V21@_K@Z ; std::__p2286::_Fmt_write<char,std::back_insert_iterator<std::_Fmt_buffer<char> >,unsigned __int64>
PUBLIC	??$_Fmt_write@DV?$back_insert_iterator@V?$_Fmt_buffer@D@std@@@std@@_J@__p2286@std@@YA?AV?$back_insert_iterator@V?$_Fmt_buffer@D@std@@@1@V21@_J@Z ; std::__p2286::_Fmt_write<char,std::back_insert_iterator<std::_Fmt_buffer<char> >,__int64>
PUBLIC	??$_Fmt_write@DV?$back_insert_iterator@V?$_Fmt_buffer@D@std@@@std@@I@__p2286@std@@YA?AV?$back_insert_iterator@V?$_Fmt_buffer@D@std@@@1@V21@I@Z ; std::__p2286::_Fmt_write<char,std::back_insert_iterator<std::_Fmt_buffer<char> >,unsigned int>
PUBLIC	??$_Fmt_write@DV?$back_insert_iterator@V?$_Fmt_buffer@D@std@@@std@@H@__p2286@std@@YA?AV?$back_insert_iterator@V?$_Fmt_buffer@D@std@@@1@V21@H@Z ; std::__p2286::_Fmt_write<char,std::back_insert_iterator<std::_Fmt_buffer<char> >,int>
PUBLIC	??$_Fmt_write@DV?$back_insert_iterator@V?$_Fmt_buffer@D@std@@@std@@@__p2286@std@@YA?AV?$back_insert_iterator@V?$_Fmt_buffer@D@std@@@1@V21@Umonostate@1@@Z ; std::__p2286::_Fmt_write<char,std::back_insert_iterator<std::_Fmt_buffer<char> > >
PUBLIC	??$_Parse_precision@DAEAV?$_Specs_checker@V?$_Specs_handler@V?$basic_format_parse_context@D@std@@V?$basic_format_context@V?$back_insert_iterator@V?$_Fmt_buffer@D@std@@@std@@D@2@@std@@@std@@@std@@YAPEBDPEBD0AEAV?$_Specs_checker@V?$_Specs_handler@V?$basic_format_parse_context@D@std@@V?$basic_format_context@V?$back_insert_iterator@V?$_Fmt_buffer@D@std@@@std@@D@2@@std@@@0@@Z ; std::_Parse_precision<char,std::_Specs_checker<std::_Specs_handler<std::basic_format_parse_context<char>,std::basic_format_context<std::back_insert_iterator<std::_Fmt_buffer<char> >,char> > > &>
PUBLIC	??$_Parse_width@DAEAV?$_Specs_checker@V?$_Specs_handler@V?$basic_format_parse_context@D@std@@V?$basic_format_context@V?$back_insert_iterator@V?$_Fmt_buffer@D@std@@@std@@D@2@@std@@@std@@@std@@YAPEBDPEBD0AEAV?$_Specs_checker@V?$_Specs_handler@V?$basic_format_parse_context@D@std@@V?$basic_format_context@V?$back_insert_iterator@V?$_Fmt_buffer@D@std@@@std@@D@2@@std@@@0@@Z ; std::_Parse_width<char,std::_Specs_checker<std::_Specs_handler<std::basic_format_parse_context<char>,std::basic_format_context<std::back_insert_iterator<std::_Fmt_buffer<char> >,char> > > &>
PUBLIC	??$_Parse_align@DAEAV?$_Specs_checker@V?$_Specs_handler@V?$basic_format_parse_context@D@std@@V?$basic_format_context@V?$back_insert_iterator@V?$_Fmt_buffer@D@std@@@std@@D@2@@std@@@std@@@std@@YAPEBDPEBD0AEAV?$_Specs_checker@V?$_Specs_handler@V?$basic_format_parse_context@D@std@@V?$basic_format_context@V?$back_insert_iterator@V?$_Fmt_buffer@D@std@@@std@@D@2@@std@@@0@@Z ; std::_Parse_align<char,std::_Specs_checker<std::_Specs_handler<std::basic_format_parse_context<char>,std::basic_format_context<std::back_insert_iterator<std::_Fmt_buffer<char> >,char> > > &>
PUBLIC	??$_Seek_wrapped@V?$_String_view_iterator@U?$char_traits@D@std@@@std@@PEBD@std@@YAXAEAV?$_String_view_iterator@U?$char_traits@D@std@@@0@$$QEAPEBD@Z ; std::_Seek_wrapped<std::_String_view_iterator<std::char_traits<char> >,char const *>
PUBLIC	??$move@AEAV?$_String_view_iterator@U?$char_traits@D@std@@@std@@@std@@YA$$QEAV?$_String_view_iterator@U?$char_traits@D@std@@@0@AEAV10@@Z ; std::move<std::_String_view_iterator<std::char_traits<char> > &>
PUBLIC	??$forward@V?$back_insert_iterator@V?$_Fmt_buffer@D@std@@@std@@@std@@YA$$QEAV?$back_insert_iterator@V?$_Fmt_buffer@D@std@@@0@AEAV10@@Z ; std::forward<std::back_insert_iterator<std::_Fmt_buffer<char> > >
PUBLIC	??$_Copy_unchecked@PEBDPEBDV?$back_insert_iterator@V?$_Fmt_buffer@D@std@@@std@@@std@@YA?AV?$back_insert_iterator@V?$_Fmt_buffer@D@std@@@0@PEBD0V10@@Z ; std::_Copy_unchecked<char const *,char const *,std::back_insert_iterator<std::_Fmt_buffer<char> > >
PUBLIC	??$end@D$07@std@@YAPEADAEAY07D@Z		; std::end<char,8>
PUBLIC	??$_Choose_literal@D@std@@YAPEBDQEBDQEB_W@Z	; std::_Choose_literal<char>
PUBLIC	??$in_range@CC@std@@YA_NC@Z			; std::in_range<signed char,signed char>
PUBLIC	??$in_range@C_K@std@@YA_N_K@Z			; std::in_range<signed char,unsigned __int64>
PUBLIC	??$in_range@C_J@std@@YA_N_J@Z			; std::in_range<signed char,__int64>
PUBLIC	??$in_range@CI@std@@YA_NI@Z			; std::in_range<signed char,unsigned int>
PUBLIC	??$in_range@CH@std@@YA_NH@Z			; std::in_range<signed char,int>
PUBLIC	??$in_range@CE@std@@YA_NE@Z			; std::in_range<signed char,unsigned char>
PUBLIC	??$_Countl_zero_fallback@_K@std@@YAH_K@Z	; std::_Countl_zero_fallback<unsigned __int64>
PUBLIC	??$_Checked_x86_x64_countl_zero@_K@std@@YAH_K@Z	; std::_Checked_x86_x64_countl_zero<unsigned __int64>
PUBLIC	??$_On_type@D@?$_Specs_checker@V?$_Specs_handler@V?$basic_format_parse_context@D@std@@V?$basic_format_context@V?$back_insert_iterator@V?$_Fmt_buffer@D@std@@@std@@D@2@@std@@@std@@QEAAXD@Z ; std::_Specs_checker<std::_Specs_handler<std::basic_format_parse_context<char>,std::basic_format_context<std::back_insert_iterator<std::_Fmt_buffer<char> >,char> > >::_On_type<char>
PUBLIC	??$_Fmt_write@DV?$back_insert_iterator@V?$_Fmt_buffer@D@std@@@std@@@__p2286@std@@YA?AV?$back_insert_iterator@V?$_Fmt_buffer@D@std@@@1@V21@_N@Z ; std::__p2286::_Fmt_write<char,std::back_insert_iterator<std::_Fmt_buffer<char> > >
PUBLIC	??$_Fmt_write@DV?$back_insert_iterator@V?$_Fmt_buffer@D@std@@@std@@@__p2286@std@@YA?AV?$back_insert_iterator@V?$_Fmt_buffer@D@std@@@1@V21@D@Z ; std::__p2286::_Fmt_write<char,std::back_insert_iterator<std::_Fmt_buffer<char> > >
PUBLIC	??$_Fmt_write@DV?$back_insert_iterator@V?$_Fmt_buffer@D@std@@@std@@@__p2286@std@@YA?AV?$back_insert_iterator@V?$_Fmt_buffer@D@std@@@1@V21@PEBD@Z ; std::__p2286::_Fmt_write<char,std::back_insert_iterator<std::_Fmt_buffer<char> > >
PUBLIC	?_Require_numeric_argument@?$_Specs_checker@V?$_Specs_handler@V?$basic_format_parse_context@D@std@@V?$basic_format_context@V?$back_insert_iterator@V?$_Fmt_buffer@D@std@@@std@@D@2@@std@@@std@@QEBAXXZ ; std::_Specs_checker<std::_Specs_handler<std::basic_format_parse_context<char>,std::basic_format_context<std::back_insert_iterator<std::_Fmt_buffer<char> >,char> > >::_Require_numeric_argument
PUBLIC	?_Decode@?$_Fmt_codec@D$0A@@std@@QEBA?AU?$_Decode_result@D@2@QEBD0AEA_U@Z ; std::_Fmt_codec<char,0>::_Decode
PUBLIC	??B?$basic_format_arg@V?$basic_format_context@V?$back_insert_iterator@V?$_Fmt_buffer@D@std@@@std@@D@std@@@std@@QEBA_NXZ ; std::basic_format_arg<std::basic_format_context<std::back_insert_iterator<std::_Fmt_buffer<char> >,char> >::operator bool
PUBLIC	?_On_localized@?$_Specs_checker@V?$_Specs_handler@V?$basic_format_parse_context@D@std@@V?$basic_format_context@V?$back_insert_iterator@V?$_Fmt_buffer@D@std@@@std@@D@2@@std@@@std@@QEAAXXZ ; std::_Specs_checker<std::_Specs_handler<std::basic_format_parse_context<char>,std::basic_format_context<std::back_insert_iterator<std::_Fmt_buffer<char> >,char> > >::_On_localized
PUBLIC	?_On_hash@?$_Specs_checker@V?$_Specs_handler@V?$basic_format_parse_context@D@std@@V?$basic_format_context@V?$back_insert_iterator@V?$_Fmt_buffer@D@std@@@std@@D@2@@std@@@std@@QEAAXXZ ; std::_Specs_checker<std::_Specs_handler<std::basic_format_parse_context<char>,std::basic_format_context<std::back_insert_iterator<std::_Fmt_buffer<char> >,char> > >::_On_hash
PUBLIC	?_On_sign@?$_Specs_checker@V?$_Specs_handler@V?$basic_format_parse_context@D@std@@V?$basic_format_context@V?$back_insert_iterator@V?$_Fmt_buffer@D@std@@@std@@D@2@@std@@@std@@QEAAXW4_Fmt_sign@2@@Z ; std::_Specs_checker<std::_Specs_handler<std::basic_format_parse_context<char>,std::basic_format_context<std::back_insert_iterator<std::_Fmt_buffer<char> >,char> > >::_On_sign
PUBLIC	?_On_zero@?$_Specs_checker@V?$_Specs_handler@V?$basic_format_parse_context@D@std@@V?$basic_format_context@V?$back_insert_iterator@V?$_Fmt_buffer@D@std@@@std@@D@2@@std@@@std@@QEAAXXZ ; std::_Specs_checker<std::_Specs_handler<std::basic_format_parse_context<char>,std::basic_format_context<std::back_insert_iterator<std::_Fmt_buffer<char> >,char> > >::_On_zero
PUBLIC	??$?RV?$basic_string_view@DU?$char_traits@D@std@@@std@@@?$_Default_arg_formatter@V?$back_insert_iterator@V?$_Fmt_buffer@D@std@@@std@@D@__p2286@std@@QEHAA?AV?$back_insert_iterator@V?$_Fmt_buffer@D@std@@@2@V?$basic_string_view@DU?$char_traits@D@std@@@2@@Z ; std::__p2286::_Default_arg_formatter<std::back_insert_iterator<std::_Fmt_buffer<char> >,char>::operator()<std::basic_string_view<char,std::char_traits<char> > >
PUBLIC	??$?RPEBD@?$_Default_arg_formatter@V?$back_insert_iterator@V?$_Fmt_buffer@D@std@@@std@@D@__p2286@std@@QEHAA?AV?$back_insert_iterator@V?$_Fmt_buffer@D@std@@@2@PEBD@Z ; std::__p2286::_Default_arg_formatter<std::back_insert_iterator<std::_Fmt_buffer<char> >,char>::operator()<char const *>
PUBLIC	??$?RPEBX@?$_Default_arg_formatter@V?$back_insert_iterator@V?$_Fmt_buffer@D@std@@@std@@D@__p2286@std@@QEHAA?AV?$back_insert_iterator@V?$_Fmt_buffer@D@std@@@2@PEBX@Z ; std::__p2286::_Default_arg_formatter<std::back_insert_iterator<std::_Fmt_buffer<char> >,char>::operator()<void const *>
PUBLIC	??$?RO@?$_Default_arg_formatter@V?$back_insert_iterator@V?$_Fmt_buffer@D@std@@@std@@D@__p2286@std@@QEHAA?AV?$back_insert_iterator@V?$_Fmt_buffer@D@std@@@2@O@Z ; std::__p2286::_Default_arg_formatter<std::back_insert_iterator<std::_Fmt_buffer<char> >,char>::operator()<long double>
PUBLIC	??$?RN@?$_Default_arg_formatter@V?$back_insert_iterator@V?$_Fmt_buffer@D@std@@@std@@D@__p2286@std@@QEHAA?AV?$back_insert_iterator@V?$_Fmt_buffer@D@std@@@2@N@Z ; std::__p2286::_Default_arg_formatter<std::back_insert_iterator<std::_Fmt_buffer<char> >,char>::operator()<double>
PUBLIC	??$?RM@?$_Default_arg_formatter@V?$back_insert_iterator@V?$_Fmt_buffer@D@std@@@std@@D@__p2286@std@@QEHAA?AV?$back_insert_iterator@V?$_Fmt_buffer@D@std@@@2@M@Z ; std::__p2286::_Default_arg_formatter<std::back_insert_iterator<std::_Fmt_buffer<char> >,char>::operator()<float>
PUBLIC	??$?RD@?$_Default_arg_formatter@V?$back_insert_iterator@V?$_Fmt_buffer@D@std@@@std@@D@__p2286@std@@QEHAA?AV?$back_insert_iterator@V?$_Fmt_buffer@D@std@@@2@D@Z ; std::__p2286::_Default_arg_formatter<std::back_insert_iterator<std::_Fmt_buffer<char> >,char>::operator()<char>
PUBLIC	??$?R_N@?$_Default_arg_formatter@V?$back_insert_iterator@V?$_Fmt_buffer@D@std@@@std@@D@__p2286@std@@QEHAA?AV?$back_insert_iterator@V?$_Fmt_buffer@D@std@@@2@_N@Z ; std::__p2286::_Default_arg_formatter<std::back_insert_iterator<std::_Fmt_buffer<char> >,char>::operator()<bool>
PUBLIC	??$?R_K@?$_Default_arg_formatter@V?$back_insert_iterator@V?$_Fmt_buffer@D@std@@@std@@D@__p2286@std@@QEHAA?AV?$back_insert_iterator@V?$_Fmt_buffer@D@std@@@2@_K@Z ; std::__p2286::_Default_arg_formatter<std::back_insert_iterator<std::_Fmt_buffer<char> >,char>::operator()<unsigned __int64>
PUBLIC	??$?R_J@?$_Default_arg_formatter@V?$back_insert_iterator@V?$_Fmt_buffer@D@std@@@std@@D@__p2286@std@@QEHAA?AV?$back_insert_iterator@V?$_Fmt_buffer@D@std@@@2@_J@Z ; std::__p2286::_Default_arg_formatter<std::back_insert_iterator<std::_Fmt_buffer<char> >,char>::operator()<__int64>
PUBLIC	??$?RI@?$_Default_arg_formatter@V?$back_insert_iterator@V?$_Fmt_buffer@D@std@@@std@@D@__p2286@std@@QEHAA?AV?$back_insert_iterator@V?$_Fmt_buffer@D@std@@@2@I@Z ; std::__p2286::_Default_arg_formatter<std::back_insert_iterator<std::_Fmt_buffer<char> >,char>::operator()<unsigned int>
PUBLIC	??$?RH@?$_Default_arg_formatter@V?$back_insert_iterator@V?$_Fmt_buffer@D@std@@@std@@D@__p2286@std@@QEHAA?AV?$back_insert_iterator@V?$_Fmt_buffer@D@std@@@2@H@Z ; std::__p2286::_Default_arg_formatter<std::back_insert_iterator<std::_Fmt_buffer<char> >,char>::operator()<int>
PUBLIC	??$?RUmonostate@std@@@?$_Default_arg_formatter@V?$back_insert_iterator@V?$_Fmt_buffer@D@std@@@std@@D@__p2286@std@@QEHAA?AV?$back_insert_iterator@V?$_Fmt_buffer@D@std@@@2@Umonostate@2@@Z ; std::__p2286::_Default_arg_formatter<std::back_insert_iterator<std::_Fmt_buffer<char> >,char>::operator()<std::monostate>
PUBLIC	??$forward@U?$_Default_arg_formatter@V?$back_insert_iterator@V?$_Fmt_buffer@D@std@@@std@@D@__p2286@std@@@std@@YA$$QEAU?$_Default_arg_formatter@V?$back_insert_iterator@V?$_Fmt_buffer@D@std@@@std@@D@__p2286@0@AEAU120@@Z ; std::forward<std::__p2286::_Default_arg_formatter<std::back_insert_iterator<std::_Fmt_buffer<char> >,char> >
PUBLIC	??$addressof@U?$_Basic_format_specs@D@std@@@std@@YAPEAU?$_Basic_format_specs@D@0@AEAU10@@Z ; std::addressof<std::_Basic_format_specs<char> >
PUBLIC	??$_Parse_format_specs@DAEAV?$_Specs_checker@V?$_Specs_handler@V?$basic_format_parse_context@D@std@@V?$basic_format_context@V?$back_insert_iterator@V?$_Fmt_buffer@D@std@@@std@@D@2@@std@@@std@@@std@@YAPEBDPEBD0AEAV?$_Specs_checker@V?$_Specs_handler@V?$basic_format_parse_context@D@std@@V?$basic_format_context@V?$back_insert_iterator@V?$_Fmt_buffer@D@std@@@std@@D@2@@std@@@0@@Z ; std::_Parse_format_specs<char,std::_Specs_checker<std::_Specs_handler<std::basic_format_parse_context<char>,std::basic_format_context<std::back_insert_iterator<std::_Fmt_buffer<char> >,char> > > &>
PUBLIC	??$_Get_arg@V?$basic_format_context@V?$back_insert_iterator@V?$_Fmt_buffer@D@std@@@std@@D@std@@@std@@YA?AV?$basic_format_arg@V?$basic_format_context@V?$back_insert_iterator@V?$_Fmt_buffer@D@std@@@std@@D@std@@@0@AEBV?$basic_format_context@V?$back_insert_iterator@V?$_Fmt_buffer@D@std@@@std@@D@0@_K@Z ; std::_Get_arg<std::basic_format_context<std::back_insert_iterator<std::_Fmt_buffer<char> >,char> >
PUBLIC	??$move@AEAPEBD@std@@YA$$QEAPEBDAEAPEBD@Z	; std::move<char const * &>
PUBLIC	??$end@D$0BI@@std@@YAPEADAEAY0BI@D@Z		; std::end<char,24>
PUBLIC	??$?RAEBV?$basic_string_view@DU?$char_traits@D@std@@@std@@@_Cpo@_Unchecked_end@ranges@std@@QEBA?A_PAEBV?$basic_string_view@DU?$char_traits@D@std@@@3@@Z ; std::ranges::_Unchecked_end::_Cpo::operator()<std::basic_string_view<char,std::char_traits<char> > const &>
PUBLIC	??$_Unwrap_range_iter@AEBV?$basic_string_view@DU?$char_traits@D@std@@@std@@V?$_String_view_iterator@U?$char_traits@D@std@@@2@@ranges@std@@YA?A_T$$QEAV?$_String_view_iterator@U?$char_traits@D@std@@@1@@Z ; std::ranges::_Unwrap_range_iter<std::basic_string_view<char,std::char_traits<char> > const &,std::_String_view_iterator<std::char_traits<char> > >
PUBLIC	??$_Unwrap_iter@V?$_String_view_iterator@U?$char_traits@D@std@@@std@@V12@@ranges@std@@YA?A_T$$QEAV?$_String_view_iterator@U?$char_traits@D@std@@@1@@Z ; std::ranges::_Unwrap_iter<std::_String_view_iterator<std::char_traits<char> >,std::_String_view_iterator<std::char_traits<char> > >
PUBLIC	??$?RAEBV?$basic_string_view@DU?$char_traits@D@std@@@std@@V?$back_insert_iterator@V?$_Fmt_buffer@D@std@@@1@@_Copy_fn@ranges@std@@QEBA?AU?$in_out_result@V?$_String_view_iterator@U?$char_traits@D@std@@@std@@V?$back_insert_iterator@V?$_Fmt_buffer@D@std@@@2@@12@AEBV?$basic_string_view@DU?$char_traits@D@std@@@2@V?$back_insert_iterator@V?$_Fmt_buffer@D@std@@@2@@Z ; std::ranges::_Copy_fn::operator()<std::basic_string_view<char,std::char_traits<char> > const &,std::back_insert_iterator<std::_Fmt_buffer<char> > >
PUBLIC	??$_Seek_wrapped@V?$back_insert_iterator@V?$_Fmt_buffer@D@std@@@std@@V12@@std@@YAXAEAV?$back_insert_iterator@V?$_Fmt_buffer@D@std@@@0@$$QEAV10@@Z ; std::_Seek_wrapped<std::back_insert_iterator<std::_Fmt_buffer<char> >,std::back_insert_iterator<std::_Fmt_buffer<char> > >
PUBLIC	??$_Write_aligned@V?$back_insert_iterator@V?$_Fmt_buffer@D@std@@@std@@U?$_Basic_format_specs@D@2@V<lambda_1>@?1???$_Write_escaped@DV?$back_insert_iterator@V?$_Fmt_buffer@D@std@@@std@@@__p2286@2@YA?AV12@V12@V?$basic_string_view@DU?$char_traits@D@std@@@2@U32@D@Z@@__p2286@std@@YA?AV?$back_insert_iterator@V?$_Fmt_buffer@D@std@@@1@V21@HAEBU?$_Basic_format_specs@D@1@W4_Fmt_align@1@$$QEAV<lambda_1>@?1???$_Write_escaped@DV?$back_insert_iterator@V?$_Fmt_buffer@D@std@@@std@@@01@YA?AV21@0V?$basic_string_view@DU?$char_traits@D@std@@@1@U31@D@Z@@Z ; std::__p2286::_Write_aligned<std::back_insert_iterator<std::_Fmt_buffer<char> >,std::_Basic_format_specs<char>,`std::__p2286::_Write_escaped<char,std::back_insert_iterator<std::_Fmt_buffer<char> > >'::`2'::<lambda_1> >
PUBLIC	??$?0PEADPEBD@?$basic_string_view@DU?$char_traits@D@std@@@std@@QEAA@PEADPEBD@Z ; std::basic_string_view<char,std::char_traits<char> >::basic_string_view<char,std::char_traits<char> ><char *,char const *>
PUBLIC	??$_Write_escaped@DV?$back_insert_iterator@V?$_Fmt_buffer@D@std@@@std@@@__p2286@std@@YA?AV?$back_insert_iterator@V?$_Fmt_buffer@D@std@@@1@V21@V?$basic_string_view@DU?$char_traits@D@std@@@1@D@Z ; std::__p2286::_Write_escaped<char,std::back_insert_iterator<std::_Fmt_buffer<char> > >
PUBLIC	??$_Write_aligned@V?$back_insert_iterator@V?$_Fmt_buffer@D@std@@@std@@U?$_Basic_format_specs@D@2@AEAV<lambda_1>@?1???$_Write_integral@DV?$back_insert_iterator@V?$_Fmt_buffer@D@std@@@std@@D@__p2286@2@YA?AV12@V12@DU32@V_Lazy_locale@2@@Z@@__p2286@std@@YA?AV?$back_insert_iterator@V?$_Fmt_buffer@D@std@@@1@V21@HAEBU?$_Basic_format_specs@D@1@W4_Fmt_align@1@AEAV<lambda_1>@?1???$_Write_integral@DV?$back_insert_iterator@V?$_Fmt_buffer@D@std@@@std@@D@01@YA?AV21@0DU31@V_Lazy_locale@1@@Z@@Z ; std::__p2286::_Write_aligned<std::back_insert_iterator<std::_Fmt_buffer<char> >,std::_Basic_format_specs<char>,`std::__p2286::_Write_integral<char,std::back_insert_iterator<std::_Fmt_buffer<char> >,char>'::`2'::<lambda_1> &>
PUBLIC	??$_Get_integral_prefix@D@__p2286@std@@YA?AV?$basic_string_view@DU?$char_traits@D@std@@@1@DD@Z ; std::__p2286::_Get_integral_prefix<char>
PUBLIC	??$_In_bounds@DD@__p2286@std@@YA_ND@Z		; std::__p2286::_In_bounds<char,char>
PUBLIC	??$_Write_aligned@V?$back_insert_iterator@V?$_Fmt_buffer@D@std@@@std@@U?$_Basic_format_specs@D@2@AEAV<lambda_1>@?1???$_Write_integral@DV?$back_insert_iterator@V?$_Fmt_buffer@D@std@@@std@@_K@__p2286@2@YA?AV12@V12@_KU32@V_Lazy_locale@2@@Z@@__p2286@std@@YA?AV?$back_insert_iterator@V?$_Fmt_buffer@D@std@@@1@V21@HAEBU?$_Basic_format_specs@D@1@W4_Fmt_align@1@AEAV<lambda_1>@?1???$_Write_integral@DV?$back_insert_iterator@V?$_Fmt_buffer@D@std@@@std@@_K@01@YA?AV21@0_KU31@V_Lazy_locale@1@@Z@@Z ; std::__p2286::_Write_aligned<std::back_insert_iterator<std::_Fmt_buffer<char> >,std::_Basic_format_specs<char>,`std::__p2286::_Write_integral<char,std::back_insert_iterator<std::_Fmt_buffer<char> >,unsigned __int64>'::`2'::<lambda_1> &>
PUBLIC	??$_Get_integral_prefix@_K@__p2286@std@@YA?AV?$basic_string_view@DU?$char_traits@D@std@@@1@D_K@Z ; std::__p2286::_Get_integral_prefix<unsigned __int64>
PUBLIC	??$_In_bounds@D_K@__p2286@std@@YA_N_K@Z		; std::__p2286::_In_bounds<char,unsigned __int64>
PUBLIC	??$_Write_aligned@V?$back_insert_iterator@V?$_Fmt_buffer@D@std@@@std@@U?$_Basic_format_specs@D@2@AEAV<lambda_1>@?1???$_Write_integral@DV?$back_insert_iterator@V?$_Fmt_buffer@D@std@@@std@@_J@__p2286@2@YA?AV12@V12@_JU32@V_Lazy_locale@2@@Z@@__p2286@std@@YA?AV?$back_insert_iterator@V?$_Fmt_buffer@D@std@@@1@V21@HAEBU?$_Basic_format_specs@D@1@W4_Fmt_align@1@AEAV<lambda_1>@?1???$_Write_integral@DV?$back_insert_iterator@V?$_Fmt_buffer@D@std@@@std@@_J@01@YA?AV21@0_JU31@V_Lazy_locale@1@@Z@@Z ; std::__p2286::_Write_aligned<std::back_insert_iterator<std::_Fmt_buffer<char> >,std::_Basic_format_specs<char>,`std::__p2286::_Write_integral<char,std::back_insert_iterator<std::_Fmt_buffer<char> >,__int64>'::`2'::<lambda_1> &>
PUBLIC	??$_Get_integral_prefix@_J@__p2286@std@@YA?AV?$basic_string_view@DU?$char_traits@D@std@@@1@D_J@Z ; std::__p2286::_Get_integral_prefix<__int64>
PUBLIC	??$_In_bounds@D_J@__p2286@std@@YA_N_J@Z		; std::__p2286::_In_bounds<char,__int64>
PUBLIC	??$_Write_aligned@V?$back_insert_iterator@V?$_Fmt_buffer@D@std@@@std@@U?$_Basic_format_specs@D@2@AEAV<lambda_1>@?1???$_Write_integral@DV?$back_insert_iterator@V?$_Fmt_buffer@D@std@@@std@@I@__p2286@2@YA?AV12@V12@IU32@V_Lazy_locale@2@@Z@@__p2286@std@@YA?AV?$back_insert_iterator@V?$_Fmt_buffer@D@std@@@1@V21@HAEBU?$_Basic_format_specs@D@1@W4_Fmt_align@1@AEAV<lambda_1>@?1???$_Write_integral@DV?$back_insert_iterator@V?$_Fmt_buffer@D@std@@@std@@I@01@YA?AV21@0IU31@V_Lazy_locale@1@@Z@@Z ; std::__p2286::_Write_aligned<std::back_insert_iterator<std::_Fmt_buffer<char> >,std::_Basic_format_specs<char>,`std::__p2286::_Write_integral<char,std::back_insert_iterator<std::_Fmt_buffer<char> >,unsigned int>'::`2'::<lambda_1> &>
PUBLIC	??$_Get_integral_prefix@I@__p2286@std@@YA?AV?$basic_string_view@DU?$char_traits@D@std@@@1@DI@Z ; std::__p2286::_Get_integral_prefix<unsigned int>
PUBLIC	??$_In_bounds@DI@__p2286@std@@YA_NI@Z		; std::__p2286::_In_bounds<char,unsigned int>
PUBLIC	??$_Write_aligned@V?$back_insert_iterator@V?$_Fmt_buffer@D@std@@@std@@U?$_Basic_format_specs@D@2@AEAV<lambda_1>@?1???$_Write_integral@DV?$back_insert_iterator@V?$_Fmt_buffer@D@std@@@std@@H@__p2286@2@YA?AV12@V12@HU32@V_Lazy_locale@2@@Z@@__p2286@std@@YA?AV?$back_insert_iterator@V?$_Fmt_buffer@D@std@@@1@V21@HAEBU?$_Basic_format_specs@D@1@W4_Fmt_align@1@AEAV<lambda_1>@?1???$_Write_integral@DV?$back_insert_iterator@V?$_Fmt_buffer@D@std@@@std@@H@01@YA?AV21@0HU31@V_Lazy_locale@1@@Z@@Z ; std::__p2286::_Write_aligned<std::back_insert_iterator<std::_Fmt_buffer<char> >,std::_Basic_format_specs<char>,`std::__p2286::_Write_integral<char,std::back_insert_iterator<std::_Fmt_buffer<char> >,int>'::`2'::<lambda_1> &>
PUBLIC	??$_Get_integral_prefix@H@__p2286@std@@YA?AV?$basic_string_view@DU?$char_traits@D@std@@@1@DH@Z ; std::__p2286::_Get_integral_prefix<int>
PUBLIC	??$_In_bounds@DH@__p2286@std@@YA_NH@Z		; std::__p2286::_In_bounds<char,int>
PUBLIC	??$_Write_aligned@V?$back_insert_iterator@V?$_Fmt_buffer@D@std@@@std@@U?$_Basic_format_specs@D@2@AEAV<lambda_1>@?1???$_Write_integral@DV?$back_insert_iterator@V?$_Fmt_buffer@D@std@@@std@@E@__p2286@2@YA?AV12@V12@EU32@V_Lazy_locale@2@@Z@@__p2286@std@@YA?AV?$back_insert_iterator@V?$_Fmt_buffer@D@std@@@1@V21@HAEBU?$_Basic_format_specs@D@1@W4_Fmt_align@1@AEAV<lambda_1>@?1???$_Write_integral@DV?$back_insert_iterator@V?$_Fmt_buffer@D@std@@@std@@E@01@YA?AV21@0EU31@V_Lazy_locale@1@@Z@@Z ; std::__p2286::_Write_aligned<std::back_insert_iterator<std::_Fmt_buffer<char> >,std::_Basic_format_specs<char>,`std::__p2286::_Write_integral<char,std::back_insert_iterator<std::_Fmt_buffer<char> >,unsigned char>'::`2'::<lambda_1> &>
PUBLIC	??$_Get_integral_prefix@E@__p2286@std@@YA?AV?$basic_string_view@DU?$char_traits@D@std@@@1@DE@Z ; std::__p2286::_Get_integral_prefix<unsigned char>
PUBLIC	??$end@D$0EB@@std@@YAPEADAEAY0EB@D@Z		; std::end<char,65>
PUBLIC	??$_In_bounds@DE@__p2286@std@@YA_NE@Z		; std::__p2286::_In_bounds<char,unsigned char>
PUBLIC	??$countl_zero@_K$0A@@std@@YAH_K@Z		; std::countl_zero<unsigned __int64,0>
PUBLIC	??0?$basic_format_context@V?$back_insert_iterator@V?$_Fmt_buffer@D@std@@@std@@D@std@@QEAA@V?$back_insert_iterator@V?$_Fmt_buffer@D@std@@@1@V?$basic_format_args@V?$basic_format_context@V?$back_insert_iterator@V?$_Fmt_buffer@D@std@@@std@@D@std@@@1@AEBV_Lazy_locale@1@@Z ; std::basic_format_context<std::back_insert_iterator<std::_Fmt_buffer<char> >,char>::basic_format_context<std::back_insert_iterator<std::_Fmt_buffer<char> >,char>
PUBLIC	?__autoclassinit2@?$basic_format_context@V?$back_insert_iterator@V?$_Fmt_buffer@D@std@@@std@@D@std@@QEAAX_K@Z ; std::basic_format_context<std::back_insert_iterator<std::_Fmt_buffer<char> >,char>::__autoclassinit2
PUBLIC	?__autoclassinit2@?$basic_format_parse_context@D@std@@QEAAX_K@Z ; std::basic_format_parse_context<char>::__autoclassinit2
PUBLIC	?_Get_args@?$basic_format_context@V?$back_insert_iterator@V?$_Fmt_buffer@D@std@@@std@@D@std@@QEBAAEBV?$basic_format_args@V?$basic_format_context@V?$back_insert_iterator@V?$_Fmt_buffer@D@std@@@std@@D@std@@@2@XZ ; std::basic_format_context<std::back_insert_iterator<std::_Fmt_buffer<char> >,char>::_Get_args
PUBLIC	?format@handle@?$basic_format_arg@V?$basic_format_context@V?$back_insert_iterator@V?$_Fmt_buffer@D@std@@@std@@D@std@@@std@@QEBAXAEAV?$basic_format_parse_context@D@3@AEAV?$basic_format_context@V?$back_insert_iterator@V?$_Fmt_buffer@D@std@@@std@@D@3@@Z ; std::basic_format_arg<std::basic_format_context<std::back_insert_iterator<std::_Fmt_buffer<char> >,char> >::handle::format
PUBLIC	??0?$_Specs_handler@V?$basic_format_parse_context@D@std@@V?$basic_format_context@V?$back_insert_iterator@V?$_Fmt_buffer@D@std@@@std@@D@2@@std@@QEAA@AEAU?$_Basic_format_specs@D@1@AEAV?$basic_format_parse_context@D@1@AEAV?$basic_format_context@V?$back_insert_iterator@V?$_Fmt_buffer@D@std@@@std@@D@1@@Z ; std::_Specs_handler<std::basic_format_parse_context<char>,std::basic_format_context<std::back_insert_iterator<std::_Fmt_buffer<char> >,char> >::_Specs_handler<std::basic_format_parse_context<char>,std::basic_format_context<std::back_insert_iterator<std::_Fmt_buffer<char> >,char> >
PUBLIC	??0?$_Specs_checker@V?$_Specs_handler@V?$basic_format_parse_context@D@std@@V?$basic_format_context@V?$back_insert_iterator@V?$_Fmt_buffer@D@std@@@std@@D@2@@std@@@std@@QEAA@AEBV?$_Specs_handler@V?$basic_format_parse_context@D@std@@V?$basic_format_context@V?$back_insert_iterator@V?$_Fmt_buffer@D@std@@@std@@D@2@@1@W4_Basic_format_arg_type@1@@Z ; std::_Specs_checker<std::_Specs_handler<std::basic_format_parse_context<char>,std::basic_format_context<std::back_insert_iterator<std::_Fmt_buffer<char> >,char> > >::_Specs_checker<std::_Specs_handler<std::basic_format_parse_context<char>,std::basic_format_context<std::back_insert_iterator<std::_Fmt_buffer<char> >,char> > >
PUBLIC	??R?$_Default_arg_formatter@V?$back_insert_iterator@V?$_Fmt_buffer@D@std@@@std@@D@__p2286@std@@QEHAA?AV?$back_insert_iterator@V?$_Fmt_buffer@D@std@@@2@Vhandle@?$basic_format_arg@V?$basic_format_context@V?$back_insert_iterator@V?$_Fmt_buffer@D@std@@@std@@D@std@@@2@@Z ; std::__p2286::_Default_arg_formatter<std::back_insert_iterator<std::_Fmt_buffer<char> >,char>::operator()
PUBLIC	?__autoclassinit2@?$basic_format_arg@V?$basic_format_context@V?$back_insert_iterator@V?$_Fmt_buffer@D@std@@@std@@D@std@@@std@@QEAAX_K@Z ; std::basic_format_arg<std::basic_format_context<std::back_insert_iterator<std::_Fmt_buffer<char> >,char> >::__autoclassinit2
PUBLIC	??0?$basic_string_view@DU?$char_traits@D@std@@@std@@QEAA@XZ ; std::basic_string_view<char,std::char_traits<char> >::basic_string_view<char,std::char_traits<char> >
PUBLIC	??4?$back_insert_iterator@V?$_Fmt_buffer@D@std@@@std@@QEAAAEAV01@AEBD@Z ; std::back_insert_iterator<std::_Fmt_buffer<char> >::operator=
PUBLIC	??E?$back_insert_iterator@V?$_Fmt_buffer@D@std@@@std@@QEAAAEAV01@XZ ; std::back_insert_iterator<std::_Fmt_buffer<char> >::operator++
PUBLIC	??F?$_String_view_iterator@U?$char_traits@D@std@@@std@@QEAAAEAV01@XZ ; std::_String_view_iterator<std::char_traits<char> >::operator--
PUBLIC	?_On_dynamic_precision@?$_Dynamic_specs_handler@V?$basic_format_parse_context@D@std@@@std@@QEAAX_K@Z ; std::_Dynamic_specs_handler<std::basic_format_parse_context<char> >::_On_dynamic_precision
PUBLIC	?_On_dynamic_precision@?$_Dynamic_specs_handler@V?$basic_format_parse_context@D@std@@@std@@QEAAXU_Auto_id_tag@2@@Z ; std::_Dynamic_specs_handler<std::basic_format_parse_context<char> >::_On_dynamic_precision
PUBLIC	??$_Visit@U?$_Default_arg_formatter@V?$back_insert_iterator@V?$_Fmt_buffer@D@std@@@std@@D@__p2286@std@@@?$basic_format_arg@V?$basic_format_context@V?$back_insert_iterator@V?$_Fmt_buffer@D@std@@@std@@D@std@@@std@@QEAA?A_T$$QEAU?$_Default_arg_formatter@V?$back_insert_iterator@V?$_Fmt_buffer@D@std@@@std@@D@__p2286@1@@Z ; std::basic_format_arg<std::basic_format_context<std::back_insert_iterator<std::_Fmt_buffer<char> >,char> >::_Visit<std::__p2286::_Default_arg_formatter<std::back_insert_iterator<std::_Fmt_buffer<char> >,char> >
PUBLIC	??$visit_format_arg@U?$_Default_arg_formatter@V?$back_insert_iterator@V?$_Fmt_buffer@D@std@@@std@@D@__p2286@std@@V?$basic_format_context@V?$back_insert_iterator@V?$_Fmt_buffer@D@std@@@std@@D@3@@std@@YA?A_T$$QEAU?$_Default_arg_formatter@V?$back_insert_iterator@V?$_Fmt_buffer@D@std@@@std@@D@__p2286@0@V?$basic_format_arg@V?$basic_format_context@V?$back_insert_iterator@V?$_Fmt_buffer@D@std@@@std@@D@std@@@0@@Z ; std::visit_format_arg<std::__p2286::_Default_arg_formatter<std::back_insert_iterator<std::_Fmt_buffer<char> >,char>,std::basic_format_context<std::back_insert_iterator<std::_Fmt_buffer<char> >,char> >
PUBLIC	?_On_replacement_field@?$_Format_handler@D@__p2286@std@@QEAAX_KPEBD@Z ; std::__p2286::_Format_handler<char>::_On_replacement_field
PUBLIC	?_On_format_specs@?$_Format_handler@D@__p2286@std@@QEAAPEBD_KPEBD1@Z ; std::__p2286::_Format_handler<char>::_On_format_specs
PUBLIC	?__autoclassinit2@?$back_insert_iterator@V?$_Fmt_buffer@D@std@@@std@@QEAAX_K@Z ; std::back_insert_iterator<std::_Fmt_buffer<char> >::__autoclassinit2
PUBLIC	?__autoclassinit2@<lambda_1>@?1???$_Write_integral@DV?$back_insert_iterator@V?$_Fmt_buffer@D@std@@@std@@D@__p2286@std@@YA?AV?$back_insert_iterator@V?$_Fmt_buffer@D@std@@@3@V43@DU?$_Basic_format_specs@D@3@V_Lazy_locale@3@@Z@QEAAX_K@Z ; `std::__p2286::_Write_integral<char,std::back_insert_iterator<std::_Fmt_buffer<char> >,char>'::`2'::<lambda_1>::__autoclassinit2
PUBLIC	?__autoclassinit2@<lambda_1>@?1???$_Write_integral@DV?$back_insert_iterator@V?$_Fmt_buffer@D@std@@@std@@_K@__p2286@std@@YA?AV?$back_insert_iterator@V?$_Fmt_buffer@D@std@@@3@V43@_KU?$_Basic_format_specs@D@3@V_Lazy_locale@3@@Z@QEAAX_K@Z ; `std::__p2286::_Write_integral<char,std::back_insert_iterator<std::_Fmt_buffer<char> >,unsigned __int64>'::`2'::<lambda_1>::__autoclassinit2
PUBLIC	?__autoclassinit2@<lambda_1>@?1???$_Write_integral@DV?$back_insert_iterator@V?$_Fmt_buffer@D@std@@@std@@_J@__p2286@std@@YA?AV?$back_insert_iterator@V?$_Fmt_buffer@D@std@@@3@V43@_JU?$_Basic_format_specs@D@3@V_Lazy_locale@3@@Z@QEAAX_K@Z ; `std::__p2286::_Write_integral<char,std::back_insert_iterator<std::_Fmt_buffer<char> >,__int64>'::`2'::<lambda_1>::__autoclassinit2
PUBLIC	?__autoclassinit2@<lambda_1>@?1???$_Write_integral@DV?$back_insert_iterator@V?$_Fmt_buffer@D@std@@@std@@I@__p2286@std@@YA?AV?$back_insert_iterator@V?$_Fmt_buffer@D@std@@@3@V43@IU?$_Basic_format_specs@D@3@V_Lazy_locale@3@@Z@QEAAX_K@Z ; `std::__p2286::_Write_integral<char,std::back_insert_iterator<std::_Fmt_buffer<char> >,unsigned int>'::`2'::<lambda_1>::__autoclassinit2
PUBLIC	?__autoclassinit2@<lambda_1>@?1???$_Write_integral@DV?$back_insert_iterator@V?$_Fmt_buffer@D@std@@@std@@H@__p2286@std@@YA?AV?$back_insert_iterator@V?$_Fmt_buffer@D@std@@@3@V43@HU?$_Basic_format_specs@D@3@V_Lazy_locale@3@@Z@QEAAX_K@Z ; `std::__p2286::_Write_integral<char,std::back_insert_iterator<std::_Fmt_buffer<char> >,int>'::`2'::<lambda_1>::__autoclassinit2
PUBLIC	?__autoclassinit2@<lambda_1>@?1???$_Write_integral@DV?$back_insert_iterator@V?$_Fmt_buffer@D@std@@@std@@E@__p2286@std@@YA?AV?$back_insert_iterator@V?$_Fmt_buffer@D@std@@@3@V43@EU?$_Basic_format_specs@D@3@V_Lazy_locale@3@@Z@QEAAX_K@Z ; `std::__p2286::_Write_integral<char,std::back_insert_iterator<std::_Fmt_buffer<char> >,unsigned char>'::`2'::<lambda_1>::__autoclassinit2
PUBLIC	??$_Reallocate_grow_by@V<lambda_1>@?1??insert@?$basic_string@DU?$char_traits@D@std@@V?$allocator@D@2@@std@@QEAAAEAV34@_KQEBD0@Z@_KPEBD_K@?$basic_string@DU?$char_traits@D@std@@V?$allocator@D@2@@std@@AEAAAEAV01@_KV<lambda_1>@?1??insert@01@QEAAAEAV01@0QEBD0@Z@_KPEBD3@Z ; std::basic_string<char,std::char_traits<char>,std::allocator<char> >::_Reallocate_grow_by<`std::basic_string<char,std::char_traits<char>,std::allocator<char> >::insert'::`2'::<lambda_1>,unsigned __int64,char const *,unsigned __int64>
PUBLIC	??$_Copy_unchecked@PEBDPEBDV?$back_insert_iterator@V?$_Fmt_buffer@D@std@@@std@@@ranges@std@@YA?AU?$in_out_result@PEBDV?$back_insert_iterator@V?$_Fmt_buffer@D@std@@@std@@@01@PEBD0V?$back_insert_iterator@V?$_Fmt_buffer@D@std@@@1@@Z ; std::ranges::_Copy_unchecked<char const *,char const *,std::back_insert_iterator<std::_Fmt_buffer<char> > >
PUBLIC	??$_Unfancy@$$CBD@std@@YAPEBDPEBD@Z		; std::_Unfancy<char const >
PUBLIC	??$_Allocate_manually_vector_aligned@U_Default_allocate_traits@std@@@std@@YAPEAX_K@Z ; std::_Allocate_manually_vector_aligned<std::_Default_allocate_traits>
PUBLIC	??$_Copy_memmove@PEBDPEAD@std@@YAPEADPEBD0PEAD@Z ; std::_Copy_memmove<char const *,char *>
PUBLIC	??$_Parse_replacement_field@DAEAU?$_Format_handler@D@__p2286@std@@@std@@YAPEBDPEBD0AEAU?$_Format_handler@D@__p2286@0@@Z ; std::_Parse_replacement_field<char,std::__p2286::_Format_handler<char> &>
PUBLIC	??$_Write_aligned@V?$back_insert_iterator@V?$_Fmt_buffer@D@std@@@std@@U?$_Basic_format_specs@D@2@V<lambda_1>@?1???$_Fmt_write@DV?$back_insert_iterator@V?$_Fmt_buffer@D@std@@@std@@@__p2286@2@YA?AV12@V12@V?$basic_string_view@DU?$char_traits@D@std@@@2@AEBU32@V_Lazy_locale@2@@Z@@__p2286@std@@YA?AV?$back_insert_iterator@V?$_Fmt_buffer@D@std@@@1@V21@HAEBU?$_Basic_format_specs@D@1@W4_Fmt_align@1@$$QEAV<lambda_1>@?1???$_Fmt_write@DV?$back_insert_iterator@V?$_Fmt_buffer@D@std@@@std@@@01@YA?AV21@0V?$basic_string_view@DU?$char_traits@D@std@@@1@1V_Lazy_locale@1@@Z@@Z ; std::__p2286::_Write_aligned<std::back_insert_iterator<std::_Fmt_buffer<char> >,std::_Basic_format_specs<char>,`std::__p2286::_Fmt_write<char,std::back_insert_iterator<std::_Fmt_buffer<char> > >'::`2'::<lambda_1> >
PUBLIC	??$?0PEBDPEBD@?$basic_string_view@DU?$char_traits@D@std@@@std@@QEAA@PEBD0@Z ; std::basic_string_view<char,std::char_traits<char> >::basic_string_view<char,std::char_traits<char> ><char const *,char const *>
PUBLIC	??$_Measure_string_prefix@D@__p2286@std@@YAPEBDV?$basic_string_view@DU?$char_traits@D@std@@@1@AEAH@Z ; std::__p2286::_Measure_string_prefix<char>
PUBLIC	??$_Write_aligned@V?$back_insert_iterator@V?$_Fmt_buffer@D@std@@@std@@U?$_Basic_format_specs@D@2@V<lambda_1>@?1???$_Fmt_write@DV?$back_insert_iterator@V?$_Fmt_buffer@D@std@@@std@@@__p2286@2@YA?AV12@V12@QEBXAEBU32@V_Lazy_locale@2@@Z@@__p2286@std@@YA?AV?$back_insert_iterator@V?$_Fmt_buffer@D@std@@@1@V21@HAEBU?$_Basic_format_specs@D@1@W4_Fmt_align@1@$$QEAV<lambda_1>@?1???$_Fmt_write@DV?$back_insert_iterator@V?$_Fmt_buffer@D@std@@@std@@@01@YA?AV21@0QEBX1V_Lazy_locale@1@@Z@@Z ; std::__p2286::_Write_aligned<std::back_insert_iterator<std::_Fmt_buffer<char> >,std::_Basic_format_specs<char>,`std::__p2286::_Fmt_write<char,std::back_insert_iterator<std::_Fmt_buffer<char> > >'::`2'::<lambda_1> >
PUBLIC	??$_Fmt_write@DV?$back_insert_iterator@V?$_Fmt_buffer@D@std@@@std@@@__p2286@std@@YA?AV?$back_insert_iterator@V?$_Fmt_buffer@D@std@@@1@V21@QEBX@Z ; std::__p2286::_Fmt_write<char,std::back_insert_iterator<std::_Fmt_buffer<char> > >
PUBLIC	??$_Fmt_write@DV?$back_insert_iterator@V?$_Fmt_buffer@D@std@@@std@@@__p2286@std@@YA?AV?$back_insert_iterator@V?$_Fmt_buffer@D@std@@@1@V21@V?$basic_string_view@DU?$char_traits@D@std@@@1@@Z ; std::__p2286::_Fmt_write<char,std::back_insert_iterator<std::_Fmt_buffer<char> > >
PUBLIC	??$_Write_aligned@V?$back_insert_iterator@V?$_Fmt_buffer@D@std@@@std@@U?$_Basic_format_specs@D@2@AEAV<lambda_1>@?1???$_Fmt_write@DV?$back_insert_iterator@V?$_Fmt_buffer@D@std@@@std@@O@__p2286@2@YA?AV12@V12@OAEBU32@V_Lazy_locale@2@@Z@@__p2286@std@@YA?AV?$back_insert_iterator@V?$_Fmt_buffer@D@std@@@1@V21@HAEBU?$_Basic_format_specs@D@1@W4_Fmt_align@1@AEAV<lambda_1>@?1???$_Fmt_write@DV?$back_insert_iterator@V?$_Fmt_buffer@D@std@@@std@@O@01@YA?AV21@0O1V_Lazy_locale@1@@Z@@Z ; std::__p2286::_Write_aligned<std::back_insert_iterator<std::_Fmt_buffer<char> >,std::_Basic_format_specs<char>,`std::__p2286::_Fmt_write<char,std::back_insert_iterator<std::_Fmt_buffer<char> >,long double>'::`2'::<lambda_1> &>
PUBLIC	??$isnan@O@@YA_NO@Z				; isnan<long double>
PUBLIC	??$_Write_aligned@V?$back_insert_iterator@V?$_Fmt_buffer@D@std@@@std@@U?$_Basic_format_specs@D@2@AEAV<lambda_1>@?1???$_Fmt_write@DV?$back_insert_iterator@V?$_Fmt_buffer@D@std@@@std@@N@__p2286@2@YA?AV12@V12@NAEBU32@V_Lazy_locale@2@@Z@@__p2286@std@@YA?AV?$back_insert_iterator@V?$_Fmt_buffer@D@std@@@1@V21@HAEBU?$_Basic_format_specs@D@1@W4_Fmt_align@1@AEAV<lambda_1>@?1???$_Fmt_write@DV?$back_insert_iterator@V?$_Fmt_buffer@D@std@@@std@@N@01@YA?AV21@0N1V_Lazy_locale@1@@Z@@Z ; std::__p2286::_Write_aligned<std::back_insert_iterator<std::_Fmt_buffer<char> >,std::_Basic_format_specs<char>,`std::__p2286::_Fmt_write<char,std::back_insert_iterator<std::_Fmt_buffer<char> >,double>'::`2'::<lambda_1> &>
PUBLIC	??$isnan@N@@YA_NN@Z				; isnan<double>
PUBLIC	??$?RAEBV?$basic_string_view@DU?$char_traits@D@std@@@std@@@_Cpo@_Begin@ranges@std@@QEBA?A_PAEBV?$basic_string_view@DU?$char_traits@D@std@@@3@@Z ; std::ranges::_Begin::_Cpo::operator()<std::basic_string_view<char,std::char_traits<char> > const &>
PUBLIC	??$_Write_aligned@V?$back_insert_iterator@V?$_Fmt_buffer@D@std@@@std@@U?$_Basic_format_specs@D@2@AEAV<lambda_1>@?1???$_Fmt_write@DV?$back_insert_iterator@V?$_Fmt_buffer@D@std@@@std@@M@__p2286@2@YA?AV12@V12@MAEBU32@V_Lazy_locale@2@@Z@@__p2286@std@@YA?AV?$back_insert_iterator@V?$_Fmt_buffer@D@std@@@1@V21@HAEBU?$_Basic_format_specs@D@1@W4_Fmt_align@1@AEAV<lambda_1>@?1???$_Fmt_write@DV?$back_insert_iterator@V?$_Fmt_buffer@D@std@@@std@@M@01@YA?AV21@0M1V_Lazy_locale@1@@Z@@Z ; std::__p2286::_Write_aligned<std::back_insert_iterator<std::_Fmt_buffer<char> >,std::_Basic_format_specs<char>,`std::__p2286::_Fmt_write<char,std::back_insert_iterator<std::_Fmt_buffer<char> >,float>'::`2'::<lambda_1> &>
PUBLIC	??$_Widen_and_copy@DV?$back_insert_iterator@V?$_Fmt_buffer@D@std@@@std@@@__p2286@std@@YA?AV?$back_insert_iterator@V?$_Fmt_buffer@D@std@@@1@PEBDQEBDV21@@Z ; std::__p2286::_Widen_and_copy<char,std::back_insert_iterator<std::_Fmt_buffer<char> > >
PUBLIC	??$_Write_separated_integer@DV?$back_insert_iterator@V?$_Fmt_buffer@D@std@@@std@@@__p2286@std@@YA?AV?$back_insert_iterator@V?$_Fmt_buffer@D@std@@@1@PEBDQEBDV?$basic_string_view@DU?$char_traits@D@std@@@1@DHV21@@Z ; std::__p2286::_Write_separated_integer<char,std::back_insert_iterator<std::_Fmt_buffer<char> > >
PUBLIC	??$?RDV?$back_insert_iterator@V?$_Fmt_buffer@D@std@@@std@@@_Fill_n_fn@ranges@std@@QEBA?AV?$back_insert_iterator@V?$_Fmt_buffer@D@std@@@2@V32@_JAEBD@Z ; std::ranges::_Fill_n_fn::operator()<char,std::back_insert_iterator<std::_Fmt_buffer<char> > >
PUBLIC	??$_Get_unwrapped_n@V?$back_insert_iterator@V?$_Fmt_buffer@D@std@@@std@@_J@std@@YA?A_T$$QEAV?$back_insert_iterator@V?$_Fmt_buffer@D@std@@@0@_J@Z ; std::_Get_unwrapped_n<std::back_insert_iterator<std::_Fmt_buffer<char> >,__int64>
PUBLIC	??$_Write_sign@V?$back_insert_iterator@V?$_Fmt_buffer@D@std@@@std@@@__p2286@std@@YA?AV?$back_insert_iterator@V?$_Fmt_buffer@D@std@@@1@V21@W4_Fmt_sign@1@_N@Z ; std::__p2286::_Write_sign<std::back_insert_iterator<std::_Fmt_buffer<char> > >
PUBLIC	??$min@PEAD@std@@YAAEBQEADAEBQEAD0@Z		; std::min<char *>
PUBLIC	??$isfinite@M@@YA_NM@Z				; isfinite<float>
PUBLIC	??$end@D$0FGJ@@std@@YAPEADAEAY0FGJ@D@Z		; std::end<char,1385>
PUBLIC	??$isnan@M@@YA_NM@Z				; isnan<float>
PUBLIC	??0<lambda_1>@?1???$_Write_escaped@DV?$back_insert_iterator@V?$_Fmt_buffer@D@std@@@std@@@__p2286@std@@YA?AV?$back_insert_iterator@V?$_Fmt_buffer@D@std@@@2@V32@V?$basic_string_view@DU?$char_traits@D@std@@@2@U?$_Basic_format_specs@D@2@D@Z@QEAA@AEAV?$basic_string@DU?$char_traits@D@std@@V?$allocator@D@2@@2@AEBQEBD@Z ; `std::__p2286::_Write_escaped<char,std::back_insert_iterator<std::_Fmt_buffer<char> > >'::`2'::<lambda_1>::<lambda_1>
PUBLIC	??R<lambda_1>@?1???$_Write_escaped@DV?$back_insert_iterator@V?$_Fmt_buffer@D@std@@@std@@@__p2286@std@@YA?AV?$back_insert_iterator@V?$_Fmt_buffer@D@std@@@2@V32@V?$basic_string_view@DU?$char_traits@D@std@@@2@U?$_Basic_format_specs@D@2@D@Z@QEBA@0@Z ; `std::__p2286::_Write_escaped<char,std::back_insert_iterator<std::_Fmt_buffer<char> > >'::`2'::<lambda_1>::operator()
PUBLIC	??$_Write_escaped@DV?$back_insert_iterator@V?$_Fmt_buffer@D@std@@@std@@@__p2286@std@@YA?AV?$back_insert_iterator@V?$_Fmt_buffer@D@std@@@1@V21@V?$basic_string_view@DU?$char_traits@D@std@@@1@U?$_Basic_format_specs@D@1@D@Z ; std::__p2286::_Write_escaped<char,std::back_insert_iterator<std::_Fmt_buffer<char> > >
PUBLIC	??0<lambda_1>@?1???$_Write_integral@DV?$back_insert_iterator@V?$_Fmt_buffer@D@std@@@std@@D@__p2286@std@@YA?AV?$back_insert_iterator@V?$_Fmt_buffer@D@std@@@2@V32@DU?$_Basic_format_specs@D@2@V_Lazy_locale@2@@Z@QEAA@PEADAEAU42@AEBDAEAV?$basic_string_view@DU?$char_traits@D@std@@@2@AEB_NAEAH8AEAPEADAEAV?$basic_string@DU?$char_traits@D@std@@V?$allocator@D@2@@2@AEAV52@@Z ; `std::__p2286::_Write_integral<char,std::back_insert_iterator<std::_Fmt_buffer<char> >,char>'::`2'::<lambda_1>::<lambda_1>
PUBLIC	??R<lambda_1>@?1???$_Write_integral@DV?$back_insert_iterator@V?$_Fmt_buffer@D@std@@@std@@D@__p2286@std@@YA?AV?$back_insert_iterator@V?$_Fmt_buffer@D@std@@@2@V32@DU?$_Basic_format_specs@D@2@V_Lazy_locale@2@@Z@QEBA@0@Z ; `std::__p2286::_Write_integral<char,std::back_insert_iterator<std::_Fmt_buffer<char> >,char>'::`2'::<lambda_1>::operator()
PUBLIC	??$_Write_integral@DV?$back_insert_iterator@V?$_Fmt_buffer@D@std@@@std@@D@__p2286@std@@YA?AV?$back_insert_iterator@V?$_Fmt_buffer@D@std@@@1@V21@DU?$_Basic_format_specs@D@1@V_Lazy_locale@1@@Z ; std::__p2286::_Write_integral<char,std::back_insert_iterator<std::_Fmt_buffer<char> >,char>
PUBLIC	??0<lambda_1>@?1???$_Write_integral@DV?$back_insert_iterator@V?$_Fmt_buffer@D@std@@@std@@_K@__p2286@std@@YA?AV?$back_insert_iterator@V?$_Fmt_buffer@D@std@@@2@V32@_KU?$_Basic_format_specs@D@2@V_Lazy_locale@2@@Z@QEAA@PEADAEAU42@AEB_KAEAV?$basic_string_view@DU?$char_traits@D@std@@@2@AEB_NAEAH9AEAPEADAEAV?$basic_string@DU?$char_traits@D@std@@V?$allocator@D@2@@2@AEAV52@@Z ; `std::__p2286::_Write_integral<char,std::back_insert_iterator<std::_Fmt_buffer<char> >,unsigned __int64>'::`2'::<lambda_1>::<lambda_1>
PUBLIC	??R<lambda_1>@?1???$_Write_integral@DV?$back_insert_iterator@V?$_Fmt_buffer@D@std@@@std@@_K@__p2286@std@@YA?AV?$back_insert_iterator@V?$_Fmt_buffer@D@std@@@2@V32@_KU?$_Basic_format_specs@D@2@V_Lazy_locale@2@@Z@QEBA@0@Z ; `std::__p2286::_Write_integral<char,std::back_insert_iterator<std::_Fmt_buffer<char> >,unsigned __int64>'::`2'::<lambda_1>::operator()
PUBLIC	??$_Write_integral@DV?$back_insert_iterator@V?$_Fmt_buffer@D@std@@@std@@_K@__p2286@std@@YA?AV?$back_insert_iterator@V?$_Fmt_buffer@D@std@@@1@V21@_KU?$_Basic_format_specs@D@1@V_Lazy_locale@1@@Z ; std::__p2286::_Write_integral<char,std::back_insert_iterator<std::_Fmt_buffer<char> >,unsigned __int64>
PUBLIC	??0<lambda_1>@?1???$_Write_integral@DV?$back_insert_iterator@V?$_Fmt_buffer@D@std@@@std@@_J@__p2286@std@@YA?AV?$back_insert_iterator@V?$_Fmt_buffer@D@std@@@2@V32@_JU?$_Basic_format_specs@D@2@V_Lazy_locale@2@@Z@QEAA@PEADAEAU42@AEB_JAEAV?$basic_string_view@DU?$char_traits@D@std@@@2@AEB_NAEAH9AEAPEADAEAV?$basic_string@DU?$char_traits@D@std@@V?$allocator@D@2@@2@AEAV52@@Z ; `std::__p2286::_Write_integral<char,std::back_insert_iterator<std::_Fmt_buffer<char> >,__int64>'::`2'::<lambda_1>::<lambda_1>
PUBLIC	??R<lambda_1>@?1???$_Write_integral@DV?$back_insert_iterator@V?$_Fmt_buffer@D@std@@@std@@_J@__p2286@std@@YA?AV?$back_insert_iterator@V?$_Fmt_buffer@D@std@@@2@V32@_JU?$_Basic_format_specs@D@2@V_Lazy_locale@2@@Z@QEBA@0@Z ; `std::__p2286::_Write_integral<char,std::back_insert_iterator<std::_Fmt_buffer<char> >,__int64>'::`2'::<lambda_1>::operator()
PUBLIC	??$_Write_integral@DV?$back_insert_iterator@V?$_Fmt_buffer@D@std@@@std@@_J@__p2286@std@@YA?AV?$back_insert_iterator@V?$_Fmt_buffer@D@std@@@1@V21@_JU?$_Basic_format_specs@D@1@V_Lazy_locale@1@@Z ; std::__p2286::_Write_integral<char,std::back_insert_iterator<std::_Fmt_buffer<char> >,__int64>
PUBLIC	??0<lambda_1>@?1???$_Write_integral@DV?$back_insert_iterator@V?$_Fmt_buffer@D@std@@@std@@I@__p2286@std@@YA?AV?$back_insert_iterator@V?$_Fmt_buffer@D@std@@@2@V32@IU?$_Basic_format_specs@D@2@V_Lazy_locale@2@@Z@QEAA@PEADAEAU42@AEBIAEAV?$basic_string_view@DU?$char_traits@D@std@@@2@AEB_NAEAH8AEAPEADAEAV?$basic_string@DU?$char_traits@D@std@@V?$allocator@D@2@@2@AEAV52@@Z ; `std::__p2286::_Write_integral<char,std::back_insert_iterator<std::_Fmt_buffer<char> >,unsigned int>'::`2'::<lambda_1>::<lambda_1>
PUBLIC	??R<lambda_1>@?1???$_Write_integral@DV?$back_insert_iterator@V?$_Fmt_buffer@D@std@@@std@@I@__p2286@std@@YA?AV?$back_insert_iterator@V?$_Fmt_buffer@D@std@@@2@V32@IU?$_Basic_format_specs@D@2@V_Lazy_locale@2@@Z@QEBA@0@Z ; `std::__p2286::_Write_integral<char,std::back_insert_iterator<std::_Fmt_buffer<char> >,unsigned int>'::`2'::<lambda_1>::operator()
PUBLIC	??$_Write_integral@DV?$back_insert_iterator@V?$_Fmt_buffer@D@std@@@std@@I@__p2286@std@@YA?AV?$back_insert_iterator@V?$_Fmt_buffer@D@std@@@1@V21@IU?$_Basic_format_specs@D@1@V_Lazy_locale@1@@Z ; std::__p2286::_Write_integral<char,std::back_insert_iterator<std::_Fmt_buffer<char> >,unsigned int>
PUBLIC	??0<lambda_1>@?1???$_Write_integral@DV?$back_insert_iterator@V?$_Fmt_buffer@D@std@@@std@@H@__p2286@std@@YA?AV?$back_insert_iterator@V?$_Fmt_buffer@D@std@@@2@V32@HU?$_Basic_format_specs@D@2@V_Lazy_locale@2@@Z@QEAA@PEADAEAU42@AEBHAEAV?$basic_string_view@DU?$char_traits@D@std@@@2@AEB_NAEAH8AEAPEADAEAV?$basic_string@DU?$char_traits@D@std@@V?$allocator@D@2@@2@AEAV52@@Z ; `std::__p2286::_Write_integral<char,std::back_insert_iterator<std::_Fmt_buffer<char> >,int>'::`2'::<lambda_1>::<lambda_1>
PUBLIC	??R<lambda_1>@?1???$_Write_integral@DV?$back_insert_iterator@V?$_Fmt_buffer@D@std@@@std@@H@__p2286@std@@YA?AV?$back_insert_iterator@V?$_Fmt_buffer@D@std@@@2@V32@HU?$_Basic_format_specs@D@2@V_Lazy_locale@2@@Z@QEBA@0@Z ; `std::__p2286::_Write_integral<char,std::back_insert_iterator<std::_Fmt_buffer<char> >,int>'::`2'::<lambda_1>::operator()
PUBLIC	??$_Write_integral@DV?$back_insert_iterator@V?$_Fmt_buffer@D@std@@@std@@H@__p2286@std@@YA?AV?$back_insert_iterator@V?$_Fmt_buffer@D@std@@@1@V21@HU?$_Basic_format_specs@D@1@V_Lazy_locale@1@@Z ; std::__p2286::_Write_integral<char,std::back_insert_iterator<std::_Fmt_buffer<char> >,int>
PUBLIC	??0<lambda_1>@?1???$_Write_integral@DV?$back_insert_iterator@V?$_Fmt_buffer@D@std@@@std@@E@__p2286@std@@YA?AV?$back_insert_iterator@V?$_Fmt_buffer@D@std@@@2@V32@EU?$_Basic_format_specs@D@2@V_Lazy_locale@2@@Z@QEAA@PEADAEAU42@AEBEAEAV?$basic_string_view@DU?$char_traits@D@std@@@2@AEB_NAEAH8AEAPEADAEAV?$basic_string@DU?$char_traits@D@std@@V?$allocator@D@2@@2@AEAV52@@Z ; `std::__p2286::_Write_integral<char,std::back_insert_iterator<std::_Fmt_buffer<char> >,unsigned char>'::`2'::<lambda_1>::<lambda_1>
PUBLIC	??R<lambda_1>@?1???$_Write_integral@DV?$back_insert_iterator@V?$_Fmt_buffer@D@std@@@std@@E@__p2286@std@@YA?AV?$back_insert_iterator@V?$_Fmt_buffer@D@std@@@2@V32@EU?$_Basic_format_specs@D@2@V_Lazy_locale@2@@Z@QEBA@0@Z ; `std::__p2286::_Write_integral<char,std::back_insert_iterator<std::_Fmt_buffer<char> >,unsigned char>'::`2'::<lambda_1>::operator()
PUBLIC	??$_Write_integral@DV?$back_insert_iterator@V?$_Fmt_buffer@D@std@@@std@@E@__p2286@std@@YA?AV?$back_insert_iterator@V?$_Fmt_buffer@D@std@@@1@V21@EU?$_Basic_format_specs@D@1@V_Lazy_locale@1@@Z ; std::__p2286::_Write_integral<char,std::back_insert_iterator<std::_Fmt_buffer<char> >,unsigned char>
PUBLIC	??$forward@AEAPEB_K@std@@YAAEAPEB_KAEAPEB_K@Z	; std::forward<unsigned __int64 const * &>
PUBLIC	??$advance@PEB_K_J@std@@YAXAEAPEB_K_J@Z		; std::advance<unsigned __int64 const *,__int64>
PUBLIC	??$__std_find_trivial@DD@@YAPEADPEAD0D@Z	; __std_find_trivial<char,char>
PUBLIC	??$_Could_compare_equal_to_value_type@PEADD@std@@YA_NAEBD@Z ; std::_Could_compare_equal_to_value_type<char *,char>
PUBLIC	??$forward@W4errc@std@@@std@@YA$$QEAW4errc@0@AEAW410@@Z ; std::forward<enum std::errc>
PUBLIC	??$_On_dynamic_precision@_K@?$_Specs_checker@V?$_Dynamic_specs_handler@V?$basic_format_parse_context@D@std@@@std@@@std@@QEAAX_K@Z ; std::_Specs_checker<std::_Dynamic_specs_handler<std::basic_format_parse_context<char> > >::_On_dynamic_precision<unsigned __int64>
PUBLIC	??$_On_dynamic_precision@U_Auto_id_tag@std@@@?$_Specs_checker@V?$_Dynamic_specs_handler@V?$basic_format_parse_context@D@std@@@std@@@std@@QEAAXU_Auto_id_tag@1@@Z ; std::_Specs_checker<std::_Dynamic_specs_handler<std::basic_format_parse_context<char> > >::_On_dynamic_precision<std::_Auto_id_tag>
PUBLIC	??$bit_width@_K$0A@@std@@YAH_K@Z		; std::bit_width<unsigned __int64,0>
PUBLIC	?_Try_reserve@?$_Fmt_buffer@D@std@@QEAAX_K@Z	; std::_Fmt_buffer<char>::_Try_reserve
PUBLIC	?_Verify_dynamic_arg_index_in_range@?$_Dynamic_specs_handler@V?$basic_format_parse_context@D@std@@@std@@CAH_K@Z ; std::_Dynamic_specs_handler<std::basic_format_parse_context<char> >::_Verify_dynamic_arg_index_in_range
PUBLIC	?push_back@?$_Fmt_buffer@D@std@@QEAAXD@Z	; std::_Fmt_buffer<char>::push_back
PUBLIC	?_On_dynamic_width@?$_Dynamic_specs_handler@V?$basic_format_parse_context@D@std@@@std@@QEAAX_K@Z ; std::_Dynamic_specs_handler<std::basic_format_parse_context<char> >::_On_dynamic_width
PUBLIC	?_On_dynamic_width@?$_Dynamic_specs_handler@V?$basic_format_parse_context@D@std@@@std@@QEAAXU_Auto_id_tag@2@@Z ; std::_Dynamic_specs_handler<std::basic_format_parse_context<char> >::_On_dynamic_width
PUBLIC	??R<lambda_1>@?1??insert@?$basic_string@DU?$char_traits@D@std@@V?$allocator@D@2@@std@@QEAAAEAV23@_KQEBD0@Z@QEBA@QEAD10010@Z ; `std::basic_string<char,std::char_traits<char>,std::allocator<char> >::insert'::`2'::<lambda_1>::operator()
PUBLIC	?insert@?$basic_string@DU?$char_traits@D@std@@V?$allocator@D@2@@std@@QEAAAEAV12@_KQEBD0@Z ; std::basic_string<char,std::char_traits<char>,std::allocator<char> >::insert
PUBLIC	??4?$back_insert_iterator@V?$_Fmt_buffer@D@std@@@std@@QEAAAEAV01@$$QEAD@Z ; std::back_insert_iterator<std::_Fmt_buffer<char> >::operator=
PUBLIC	??D?$back_insert_iterator@V?$_Fmt_buffer@D@std@@@std@@QEAAAEAV01@XZ ; std::back_insert_iterator<std::_Fmt_buffer<char> >::operator*
PUBLIC	??E?$back_insert_iterator@V?$_Fmt_buffer@D@std@@@std@@QEAA?AV01@H@Z ; std::back_insert_iterator<std::_Fmt_buffer<char> >::operator++
PUBLIC	?_On_text@?$_Format_handler@D@__p2286@std@@QEAAXPEBD0@Z ; std::__p2286::_Format_handler<char>::_On_text
PUBLIC	?_On_auto_id@?$_Width_adapter@DAEAV?$_Specs_checker@V?$_Dynamic_specs_handler@V?$basic_format_parse_context@D@std@@@std@@@std@@@std@@QEAAXXZ ; std::_Width_adapter<char,std::_Specs_checker<std::_Dynamic_specs_handler<std::basic_format_parse_context<char> > > &>::_On_auto_id
PUBLIC	?_On_manual_id@?$_Width_adapter@DAEAV?$_Specs_checker@V?$_Dynamic_specs_handler@V?$basic_format_parse_context@D@std@@@std@@@std@@@std@@QEAAX_K@Z ; std::_Width_adapter<char,std::_Specs_checker<std::_Dynamic_specs_handler<std::basic_format_parse_context<char> > > &>::_On_manual_id
PUBLIC	?_On_auto_id@?$_Precision_adapter@DAEAV?$_Specs_checker@V?$_Dynamic_specs_handler@V?$basic_format_parse_context@D@std@@@std@@@std@@@std@@QEAAXXZ ; std::_Precision_adapter<char,std::_Specs_checker<std::_Dynamic_specs_handler<std::basic_format_parse_context<char> > > &>::_On_auto_id
PUBLIC	?_On_manual_id@?$_Precision_adapter@DAEAV?$_Specs_checker@V?$_Dynamic_specs_handler@V?$basic_format_parse_context@D@std@@@std@@@std@@@std@@QEAAX_K@Z ; std::_Precision_adapter<char,std::_Specs_checker<std::_Dynamic_specs_handler<std::basic_format_parse_context<char> > > &>::_On_manual_id
PUBLIC	??$insert@PEAD$0A@@?$basic_string@DU?$char_traits@D@std@@V?$allocator@D@2@@std@@QEAA?AV?$_String_iterator@V?$_String_val@U?$_Simple_types@D@std@@@std@@@1@V?$_String_const_iterator@V?$_String_val@U?$_Simple_types@D@std@@@std@@@1@QEAD1@Z ; std::basic_string<char,std::char_traits<char>,std::allocator<char> >::insert<char *,0>
PUBLIC	??$_Get_size_of_n@$00@std@@YA_K_K@Z		; std::_Get_size_of_n<1>
PUBLIC	??$_Allocate@$0BA@U_Default_allocate_traits@std@@$0A@@std@@YAPEAX_K@Z ; std::_Allocate<16,std::_Default_allocate_traits,0>
PUBLIC	??$addressof@V?$_Fmt_buffer@D@std@@@std@@YAPEAV?$_Fmt_buffer@D@0@AEAV10@@Z ; std::addressof<std::_Fmt_buffer<char> >
PUBLIC	??$fill@PEADD@std@@YAXQEAD0AEBD@Z		; std::fill<char *,char>
PUBLIC	??$end@D$03@std@@YAPEADAEAY03D@Z		; std::end<char,4>
PUBLIC	??$_Copy_unchecked@PEBDPEBDPEAD@std@@YAPEADPEBD0PEAD@Z ; std::_Copy_unchecked<char const *,char const *,char *>
PUBLIC	??$size@D$03@std@@YA_KAEAY03$$CBD@Z		; std::size<char,4>
PUBLIC	??$_Parse_arg_id@DU?$_Precision_adapter@DAEAV?$_Specs_checker@V?$_Dynamic_specs_handler@V?$basic_format_parse_context@D@std@@@std@@@std@@@std@@@std@@YAPEBDPEBD0$$QEAU?$_Precision_adapter@DAEAV?$_Specs_checker@V?$_Dynamic_specs_handler@V?$basic_format_parse_context@D@std@@@std@@@std@@@0@@Z ; std::_Parse_arg_id<char,std::_Precision_adapter<char,std::_Specs_checker<std::_Dynamic_specs_handler<std::basic_format_parse_context<char> > > &> >
PUBLIC	??$_Parse_arg_id@DU?$_Width_adapter@DAEAV?$_Specs_checker@V?$_Dynamic_specs_handler@V?$basic_format_parse_context@D@std@@@std@@@std@@@std@@@std@@YAPEBDPEBD0$$QEAU?$_Width_adapter@DAEAV?$_Specs_checker@V?$_Dynamic_specs_handler@V?$basic_format_parse_context@D@std@@@std@@@std@@@0@@Z ; std::_Parse_arg_id<char,std::_Width_adapter<char,std::_Specs_checker<std::_Dynamic_specs_handler<std::basic_format_parse_context<char> > > &> >
PUBLIC	??$_Parse_nonnegative_integer@D@std@@YAPEBDPEBD0AEAH@Z ; std::_Parse_nonnegative_integer<char>
PUBLIC	??$addressof@$$CBVhandle@?$basic_format_arg@V?$basic_format_context@V?$back_insert_iterator@V?$_Fmt_buffer@D@std@@@std@@D@std@@@std@@@std@@YAPEBVhandle@?$basic_format_arg@V?$basic_format_context@V?$back_insert_iterator@V?$_Fmt_buffer@D@std@@@std@@D@std@@@0@AEBV120@@Z ; std::addressof<std::basic_format_arg<std::basic_format_context<std::back_insert_iterator<std::_Fmt_buffer<char> >,char> >::handle const >
PUBLIC	??$addressof@Unone@yw@@@std@@YAPEAUnone@yw@@AEAU12@@Z ; std::addressof<yw::none>
PUBLIC	??$forward@AEAPEBI@std@@YAAEAPEBIAEAPEBI@Z	; std::forward<unsigned int const * &>
PUBLIC	??$advance@PEBI_J@std@@YAXAEAPEBI_J@Z		; std::advance<unsigned int const *,__int64>
PUBLIC	??$move@AEAD@std@@YA$$QEADAEAD@Z		; std::move<char &>
PUBLIC	??$_Parse_nonnegative_integer@D@std@@YAPEBDPEBD0AEAI@Z ; std::_Parse_nonnegative_integer<char>
PUBLIC	??$_Parse_format_string@DAEAU?$_Format_handler@D@__p2286@std@@@std@@YAXV?$basic_string_view@DU?$char_traits@D@std@@@0@AEAU?$_Format_handler@D@__p2286@0@@Z ; std::_Parse_format_string<char,std::__p2286::_Format_handler<char> &>
PUBLIC	??$move@AEAV?$back_insert_iterator@V?$basic_string@DU?$char_traits@D@std@@V?$allocator@D@2@@std@@@std@@@std@@YA$$QEAV?$back_insert_iterator@V?$basic_string@DU?$char_traits@D@std@@V?$allocator@D@2@@std@@@0@AEAV10@@Z ; std::move<std::back_insert_iterator<std::basic_string<char,std::char_traits<char>,std::allocator<char> > > &>
PUBLIC	??0<lambda_1>@?1???$_Fmt_write@DV?$back_insert_iterator@V?$_Fmt_buffer@D@std@@@std@@@__p2286@std@@YA?AV?$back_insert_iterator@V?$_Fmt_buffer@D@std@@@2@V32@V?$basic_string_view@DU?$char_traits@D@std@@@2@AEBU?$_Basic_format_specs@D@2@V_Lazy_locale@2@@Z@QEAA@AEBV42@AEBQEBD@Z ; `std::__p2286::_Fmt_write<char,std::back_insert_iterator<std::_Fmt_buffer<char> > >'::`2'::<lambda_1>::<lambda_1>
PUBLIC	??R<lambda_1>@?1???$_Fmt_write@DV?$back_insert_iterator@V?$_Fmt_buffer@D@std@@@std@@@__p2286@std@@YA?AV?$back_insert_iterator@V?$_Fmt_buffer@D@std@@@2@V32@V?$basic_string_view@DU?$char_traits@D@std@@@2@AEBU?$_Basic_format_specs@D@2@V_Lazy_locale@2@@Z@QEBA@0@Z ; `std::__p2286::_Fmt_write<char,std::back_insert_iterator<std::_Fmt_buffer<char> > >'::`2'::<lambda_1>::operator()
PUBLIC	??$_Fmt_write@DV?$back_insert_iterator@V?$_Fmt_buffer@D@std@@@std@@@__p2286@std@@YA?AV?$back_insert_iterator@V?$_Fmt_buffer@D@std@@@1@V21@V?$basic_string_view@DU?$char_traits@D@std@@@1@AEBU?$_Basic_format_specs@D@1@V_Lazy_locale@1@@Z ; std::__p2286::_Fmt_write<char,std::back_insert_iterator<std::_Fmt_buffer<char> > >
PUBLIC	??$_Fmt_write@DV?$back_insert_iterator@V?$_Fmt_buffer@D@std@@@std@@@__p2286@std@@YA?AV?$back_insert_iterator@V?$_Fmt_buffer@D@std@@@1@V21@PEBDAEBU?$_Basic_format_specs@D@1@V_Lazy_locale@1@@Z ; std::__p2286::_Fmt_write<char,std::back_insert_iterator<std::_Fmt_buffer<char> > >
PUBLIC	??0<lambda_1>@?1???$_Fmt_write@DV?$back_insert_iterator@V?$_Fmt_buffer@D@std@@@std@@@__p2286@std@@YA?AV?$back_insert_iterator@V?$_Fmt_buffer@D@std@@@2@V32@QEBXAEBU?$_Basic_format_specs@D@2@V_Lazy_locale@2@@Z@QEAA@AEBQEBX@Z ; `std::__p2286::_Fmt_write<char,std::back_insert_iterator<std::_Fmt_buffer<char> > >'::`2'::<lambda_1>::<lambda_1>
PUBLIC	??R<lambda_1>@?1???$_Fmt_write@DV?$back_insert_iterator@V?$_Fmt_buffer@D@std@@@std@@@__p2286@std@@YA?AV?$back_insert_iterator@V?$_Fmt_buffer@D@std@@@2@V32@QEBXAEBU?$_Basic_format_specs@D@2@V_Lazy_locale@2@@Z@QEBA@0@Z ; `std::__p2286::_Fmt_write<char,std::back_insert_iterator<std::_Fmt_buffer<char> > >'::`2'::<lambda_1>::operator()
PUBLIC	??$_Fmt_write@DV?$back_insert_iterator@V?$_Fmt_buffer@D@std@@@std@@@__p2286@std@@YA?AV?$back_insert_iterator@V?$_Fmt_buffer@D@std@@@1@V21@QEBXAEBU?$_Basic_format_specs@D@1@V_Lazy_locale@1@@Z ; std::__p2286::_Fmt_write<char,std::back_insert_iterator<std::_Fmt_buffer<char> > >
PUBLIC	??0<lambda_1>@?1???$_Fmt_write@DV?$back_insert_iterator@V?$_Fmt_buffer@D@std@@@std@@O@__p2286@std@@YA?AV?$back_insert_iterator@V?$_Fmt_buffer@D@std@@@2@V32@OAEBU?$_Basic_format_specs@D@2@V_Lazy_locale@2@@Z@QEAA@AEAW4_Fmt_sign@2@AEB_N4AEAH1AEAV52@AEAPEAD7AEAV?$basic_string@DU?$char_traits@D@std@@V?$allocator@D@2@@2@57AEAUto_chars_result@2@AEA_N75@Z ; `std::__p2286::_Fmt_write<char,std::back_insert_iterator<std::_Fmt_buffer<char> >,long double>'::`2'::<lambda_1>::<lambda_1>
PUBLIC	??R<lambda_1>@?1???$_Fmt_write@DV?$back_insert_iterator@V?$_Fmt_buffer@D@std@@@std@@O@__p2286@std@@YA?AV?$back_insert_iterator@V?$_Fmt_buffer@D@std@@@2@V32@OAEBU?$_Basic_format_specs@D@2@V_Lazy_locale@2@@Z@QEBA@0@Z ; `std::__p2286::_Fmt_write<char,std::back_insert_iterator<std::_Fmt_buffer<char> >,long double>'::`2'::<lambda_1>::operator()
PUBLIC	??$_Fmt_write@DV?$back_insert_iterator@V?$_Fmt_buffer@D@std@@@std@@O@__p2286@std@@YA?AV?$back_insert_iterator@V?$_Fmt_buffer@D@std@@@1@V21@OAEBU?$_Basic_format_specs@D@1@V_Lazy_locale@1@@Z ; std::__p2286::_Fmt_write<char,std::back_insert_iterator<std::_Fmt_buffer<char> >,long double>
PUBLIC	??0<lambda_1>@?1???$_Fmt_write@DV?$back_insert_iterator@V?$_Fmt_buffer@D@std@@@std@@N@__p2286@std@@YA?AV?$back_insert_iterator@V?$_Fmt_buffer@D@std@@@2@V32@NAEBU?$_Basic_format_specs@D@2@V_Lazy_locale@2@@Z@QEAA@AEAW4_Fmt_sign@2@AEB_N4AEAH1AEAV52@AEAPEAD7AEAV?$basic_string@DU?$char_traits@D@std@@V?$allocator@D@2@@2@57AEAUto_chars_result@2@AEA_N75@Z ; `std::__p2286::_Fmt_write<char,std::back_insert_iterator<std::_Fmt_buffer<char> >,double>'::`2'::<lambda_1>::<lambda_1>
PUBLIC	??R<lambda_1>@?1???$_Fmt_write@DV?$back_insert_iterator@V?$_Fmt_buffer@D@std@@@std@@N@__p2286@std@@YA?AV?$back_insert_iterator@V?$_Fmt_buffer@D@std@@@2@V32@NAEBU?$_Basic_format_specs@D@2@V_Lazy_locale@2@@Z@QEBA@0@Z ; `std::__p2286::_Fmt_write<char,std::back_insert_iterator<std::_Fmt_buffer<char> >,double>'::`2'::<lambda_1>::operator()
PUBLIC	??$_Fmt_write@DV?$back_insert_iterator@V?$_Fmt_buffer@D@std@@@std@@N@__p2286@std@@YA?AV?$back_insert_iterator@V?$_Fmt_buffer@D@std@@@1@V21@NAEBU?$_Basic_format_specs@D@1@V_Lazy_locale@1@@Z ; std::__p2286::_Fmt_write<char,std::back_insert_iterator<std::_Fmt_buffer<char> >,double>
PUBLIC	??0<lambda_1>@?1???$_Fmt_write@DV?$back_insert_iterator@V?$_Fmt_buffer@D@std@@@std@@M@__p2286@std@@YA?AV?$back_insert_iterator@V?$_Fmt_buffer@D@std@@@2@V32@MAEBU?$_Basic_format_specs@D@2@V_Lazy_locale@2@@Z@QEAA@AEAW4_Fmt_sign@2@AEB_N4AEAH1AEAV52@AEAPEAD7AEAV?$basic_string@DU?$char_traits@D@std@@V?$allocator@D@2@@2@57AEAUto_chars_result@2@AEA_N75@Z ; `std::__p2286::_Fmt_write<char,std::back_insert_iterator<std::_Fmt_buffer<char> >,float>'::`2'::<lambda_1>::<lambda_1>
PUBLIC	??R<lambda_1>@?1???$_Fmt_write@DV?$back_insert_iterator@V?$_Fmt_buffer@D@std@@@std@@M@__p2286@std@@YA?AV?$back_insert_iterator@V?$_Fmt_buffer@D@std@@@2@V32@MAEBU?$_Basic_format_specs@D@2@V_Lazy_locale@2@@Z@QEBA@0@Z ; `std::__p2286::_Fmt_write<char,std::back_insert_iterator<std::_Fmt_buffer<char> >,float>'::`2'::<lambda_1>::operator()
PUBLIC	??$_Fmt_write@DV?$back_insert_iterator@V?$_Fmt_buffer@D@std@@@std@@M@__p2286@std@@YA?AV?$back_insert_iterator@V?$_Fmt_buffer@D@std@@@1@V21@MAEBU?$_Basic_format_specs@D@1@V_Lazy_locale@1@@Z ; std::__p2286::_Fmt_write<char,std::back_insert_iterator<std::_Fmt_buffer<char> >,float>
PUBLIC	??$_Fmt_write@DV?$back_insert_iterator@V?$_Fmt_buffer@D@std@@@std@@@__p2286@std@@YA?AV?$back_insert_iterator@V?$_Fmt_buffer@D@std@@@1@V21@DU?$_Basic_format_specs@D@1@V_Lazy_locale@1@@Z ; std::__p2286::_Fmt_write<char,std::back_insert_iterator<std::_Fmt_buffer<char> > >
PUBLIC	??$_Fmt_write@DV?$back_insert_iterator@V?$_Fmt_buffer@D@std@@@std@@_K@__p2286@std@@YA?AV?$back_insert_iterator@V?$_Fmt_buffer@D@std@@@1@V21@_KAEBU?$_Basic_format_specs@D@1@V_Lazy_locale@1@@Z ; std::__p2286::_Fmt_write<char,std::back_insert_iterator<std::_Fmt_buffer<char> >,unsigned __int64>
PUBLIC	??$_Fmt_write@DV?$back_insert_iterator@V?$_Fmt_buffer@D@std@@@std@@_J@__p2286@std@@YA?AV?$back_insert_iterator@V?$_Fmt_buffer@D@std@@@1@V21@_JAEBU?$_Basic_format_specs@D@1@V_Lazy_locale@1@@Z ; std::__p2286::_Fmt_write<char,std::back_insert_iterator<std::_Fmt_buffer<char> >,__int64>
PUBLIC	??$_Fmt_write@DV?$back_insert_iterator@V?$_Fmt_buffer@D@std@@@std@@I@__p2286@std@@YA?AV?$back_insert_iterator@V?$_Fmt_buffer@D@std@@@1@V21@IAEBU?$_Basic_format_specs@D@1@V_Lazy_locale@1@@Z ; std::__p2286::_Fmt_write<char,std::back_insert_iterator<std::_Fmt_buffer<char> >,unsigned int>
PUBLIC	??$_Fmt_write@DV?$back_insert_iterator@V?$_Fmt_buffer@D@std@@@std@@H@__p2286@std@@YA?AV?$back_insert_iterator@V?$_Fmt_buffer@D@std@@@1@V21@HAEBU?$_Basic_format_specs@D@1@V_Lazy_locale@1@@Z ; std::__p2286::_Fmt_write<char,std::back_insert_iterator<std::_Fmt_buffer<char> >,int>
PUBLIC	??$_Fmt_write@DV?$back_insert_iterator@V?$_Fmt_buffer@D@std@@@std@@@__p2286@std@@YA?AV?$back_insert_iterator@V?$_Fmt_buffer@D@std@@@1@V21@_NU?$_Basic_format_specs@D@1@V_Lazy_locale@1@@Z ; std::__p2286::_Fmt_write<char,std::back_insert_iterator<std::_Fmt_buffer<char> > >
PUBLIC	??$_Fmt_write@DV?$back_insert_iterator@V?$_Fmt_buffer@D@std@@@std@@@__p2286@std@@YA?AV?$back_insert_iterator@V?$_Fmt_buffer@D@std@@@1@V21@Umonostate@1@AEBU?$_Basic_format_specs@D@1@V_Lazy_locale@1@@Z ; std::__p2286::_Fmt_write<char,std::back_insert_iterator<std::_Fmt_buffer<char> > >
PUBLIC	??$?RVhandle@?$basic_format_arg@V?$basic_format_context@V?$back_insert_iterator@V?$_Fmt_buffer@D@std@@@std@@D@std@@@std@@@_Precision_checker@std@@QEBA_KVhandle@?$basic_format_arg@V?$basic_format_context@V?$back_insert_iterator@V?$_Fmt_buffer@D@std@@@std@@D@std@@@1@@Z ; std::_Precision_checker::operator()<std::basic_format_arg<std::basic_format_context<std::back_insert_iterator<std::_Fmt_buffer<char> >,char> >::handle>
PUBLIC	??$?RV?$basic_string_view@DU?$char_traits@D@std@@@std@@@_Precision_checker@std@@QEBA_KV?$basic_string_view@DU?$char_traits@D@std@@@1@@Z ; std::_Precision_checker::operator()<std::basic_string_view<char,std::char_traits<char> > >
PUBLIC	??$?RPEBD@_Precision_checker@std@@QEBA_KQEBD@Z	; std::_Precision_checker::operator()<char const *>
PUBLIC	??$?RPEBX@_Precision_checker@std@@QEBA_KQEBX@Z	; std::_Precision_checker::operator()<void const *>
PUBLIC	??$?RO@_Precision_checker@std@@QEBA_KO@Z	; std::_Precision_checker::operator()<long double>
PUBLIC	??$?RN@_Precision_checker@std@@QEBA_KN@Z	; std::_Precision_checker::operator()<double>
PUBLIC	??$?RM@_Precision_checker@std@@QEBA_KM@Z	; std::_Precision_checker::operator()<float>
PUBLIC	??$?RD@_Precision_checker@std@@QEBA_KD@Z	; std::_Precision_checker::operator()<char>
PUBLIC	??$?R_N@_Precision_checker@std@@QEBA_K_N@Z	; std::_Precision_checker::operator()<bool>
PUBLIC	??$?R_K@_Precision_checker@std@@QEBA_K_K@Z	; std::_Precision_checker::operator()<unsigned __int64>
PUBLIC	??$?R_J@_Precision_checker@std@@QEBA_K_J@Z	; std::_Precision_checker::operator()<__int64>
PUBLIC	??$?RI@_Precision_checker@std@@QEBA_KI@Z	; std::_Precision_checker::operator()<unsigned int>
PUBLIC	??$?RH@_Precision_checker@std@@QEBA_KH@Z	; std::_Precision_checker::operator()<int>
PUBLIC	??$?RUmonostate@std@@@_Precision_checker@std@@QEBA_KUmonostate@1@@Z ; std::_Precision_checker::operator()<std::monostate>
PUBLIC	??$forward@V_Precision_checker@std@@@std@@YA$$QEAV_Precision_checker@0@AEAV10@@Z ; std::forward<std::_Precision_checker>
PUBLIC	??$?RVhandle@?$basic_format_arg@V?$basic_format_context@V?$back_insert_iterator@V?$_Fmt_buffer@D@std@@@std@@D@std@@@std@@@_Width_checker@std@@QEBA_KVhandle@?$basic_format_arg@V?$basic_format_context@V?$back_insert_iterator@V?$_Fmt_buffer@D@std@@@std@@D@std@@@1@@Z ; std::_Width_checker::operator()<std::basic_format_arg<std::basic_format_context<std::back_insert_iterator<std::_Fmt_buffer<char> >,char> >::handle>
PUBLIC	??$?RV?$basic_string_view@DU?$char_traits@D@std@@@std@@@_Width_checker@std@@QEBA_KV?$basic_string_view@DU?$char_traits@D@std@@@1@@Z ; std::_Width_checker::operator()<std::basic_string_view<char,std::char_traits<char> > >
PUBLIC	??$?RPEBD@_Width_checker@std@@QEBA_KQEBD@Z	; std::_Width_checker::operator()<char const *>
PUBLIC	??$?RPEBX@_Width_checker@std@@QEBA_KQEBX@Z	; std::_Width_checker::operator()<void const *>
PUBLIC	??$?RO@_Width_checker@std@@QEBA_KO@Z		; std::_Width_checker::operator()<long double>
PUBLIC	??$?RN@_Width_checker@std@@QEBA_KN@Z		; std::_Width_checker::operator()<double>
PUBLIC	??$?RM@_Width_checker@std@@QEBA_KM@Z		; std::_Width_checker::operator()<float>
PUBLIC	??$?RD@_Width_checker@std@@QEBA_KD@Z		; std::_Width_checker::operator()<char>
PUBLIC	??$?R_N@_Width_checker@std@@QEBA_K_N@Z		; std::_Width_checker::operator()<bool>
PUBLIC	??$?R_K@_Width_checker@std@@QEBA_K_K@Z		; std::_Width_checker::operator()<unsigned __int64>
PUBLIC	??$?R_J@_Width_checker@std@@QEBA_K_J@Z		; std::_Width_checker::operator()<__int64>
PUBLIC	??$?RI@_Width_checker@std@@QEBA_KI@Z		; std::_Width_checker::operator()<unsigned int>
PUBLIC	??$?RH@_Width_checker@std@@QEBA_KH@Z		; std::_Width_checker::operator()<int>
PUBLIC	??$?RUmonostate@std@@@_Width_checker@std@@QEBA_KUmonostate@1@@Z ; std::_Width_checker::operator()<std::monostate>
PUBLIC	??$forward@V_Width_checker@std@@@std@@YA$$QEAV_Width_checker@0@AEAV10@@Z ; std::forward<std::_Width_checker>
PUBLIC	??$forward@AEAPEAV_Facet_base@std@@@std@@YAAEAPEAV_Facet_base@0@AEAPEAV10@@Z ; std::forward<std::_Facet_base * &>
PUBLIC	??$_Seek_wrapped@PEB_KAEAPEB_K@std@@YAXAEAPEB_K0@Z ; std::_Seek_wrapped<unsigned __int64 const *,unsigned __int64 const * &>
PUBLIC	??$_Next_iter@PEB_K@std@@YAPEB_KPEB_K@Z		; std::_Next_iter<unsigned __int64 const *>
PUBLIC	??$?RAEB_KAEB_K@?$less@X@std@@QEBA_NAEB_K0@Z	; std::less<void>::operator()<unsigned __int64 const &,unsigned __int64 const &>
PUBLIC	??$next@PEB_K@std@@YAPEB_KPEB_K_J@Z		; std::next<unsigned __int64 const *>
PUBLIC	??$distance@PEB_K@std@@YA_JPEB_K0@Z		; std::distance<unsigned __int64 const *>
PUBLIC	??$_Adl_verify_range@PEB_KPEB_K@std@@YAXAEBQEB_K0@Z ; std::_Adl_verify_range<unsigned __int64 const *,unsigned __int64 const *>
PUBLIC	??$_Find_unchecked@PEADD@std@@YAPEADPEADQEADAEBD@Z ; std::_Find_unchecked<char *,char>
PUBLIC	??$?0AEAPEADW4errc@std@@$0A@@?$pair@PEADW4errc@std@@@std@@QEAA@AEAPEAD$$QEAW4errc@1@@Z ; std::pair<char *,enum std::errc>::pair<char *,enum std::errc><char * &,enum std::errc,0>
PUBLIC	??$__append_n_digits@D@std@@YAXIIQEAD@Z		; std::__append_n_digits<char>
PUBLIC	??$fill_n@PEADID@std@@YAPEADPEADIAEBD@Z		; std::fill_n<char *,unsigned int,char>
PUBLIC	??$_Get_unwrapped_n@AEAPEADI@std@@YA?A_TAEAPEADI@Z ; std::_Get_unwrapped_n<char * &,unsigned int>
PUBLIC	??$__to_chars@D@std@@YA?AU?$pair@PEADW4errc@std@@@0@QEAD0U__floating_decimal_64@0@W4chars_format@0@N@Z ; std::__to_chars<char>
PUBLIC	??$?0PEADW4errc@std@@$0A@@?$pair@PEADW4errc@std@@@std@@QEAA@$$QEAPEAD$$QEAW4errc@1@@Z ; std::pair<char *,enum std::errc>::pair<char *,enum std::errc><char *,enum std::errc,0>
PUBLIC	??$?0AEBQEADW4errc@std@@$0A@@?$pair@PEADW4errc@std@@@std@@QEAA@AEBQEAD$$QEAW4errc@1@@Z ; std::pair<char *,enum std::errc>::pair<char *,enum std::errc><char * const &,enum std::errc,0>
PUBLIC	??$__to_chars@D@std@@YA?AU?$pair@PEADW4errc@std@@@0@QEAD0U__floating_decimal_32@0@W4chars_format@0@II@Z ; std::__to_chars<char>
PUBLIC	??$_Large_integer_to_chars@D@std@@YA?AU?$pair@PEADW4errc@std@@@0@QEAD0IH@Z ; std::_Large_integer_to_chars<char>
PUBLIC	??$_Copy_memmove@PEADPEAD@std@@YAPEADPEAD00@Z	; std::_Copy_memmove<char *,char *>
PUBLIC	??$forward@PEAD@std@@YA$$QEAPEADAEAPEAD@Z	; std::forward<char *>
PUBLIC	??0?$_Back_insert_iterator_container_access@V?$basic_string@DU?$char_traits@D@std@@V?$allocator@D@2@@std@@@std@@QEAA@V?$back_insert_iterator@V?$basic_string@DU?$char_traits@D@std@@V?$allocator@D@2@@std@@@1@@Z ; std::_Back_insert_iterator_container_access<std::basic_string<char,std::char_traits<char>,std::allocator<char> > >::_Back_insert_iterator_container_access<std::basic_string<char,std::char_traits<char>,std::allocator<char> > >
PUBLIC	??0?$_Fmt_buffer@D@std@@IEAA@PEAD_K1@Z		; std::_Fmt_buffer<char>::_Fmt_buffer<char>
PUBLIC	?check_arg_id@?$basic_format_parse_context@D@std@@QEAAX_K@Z ; std::basic_format_parse_context<char>::check_arg_id
PUBLIC	??0_Lazy_locale@std@@QEAA@XZ			; std::_Lazy_locale::_Lazy_locale
PUBLIC	??0?$basic_format_context@V?$back_insert_iterator@V?$_Fmt_buffer@D@std@@@std@@D@std@@QEAA@V?$back_insert_iterator@V?$_Fmt_buffer@D@std@@@1@V?$basic_format_args@V?$basic_format_context@V?$back_insert_iterator@V?$_Fmt_buffer@D@std@@@std@@D@std@@@1@@Z ; std::basic_format_context<std::back_insert_iterator<std::_Fmt_buffer<char> >,char>::basic_format_context<std::back_insert_iterator<std::_Fmt_buffer<char> >,char>
PUBLIC	?_On_precision@?$_Specs_setter@D@std@@QEAAXH@Z	; std::_Specs_setter<char>::_On_precision
PUBLIC	?_Check_precision@?$_Specs_checker@V?$_Dynamic_specs_handler@V?$basic_format_parse_context@D@std@@@std@@@std@@QEBAXXZ ; std::_Specs_checker<std::_Dynamic_specs_handler<std::basic_format_parse_context<char> > >::_Check_precision
PUBLIC	?_Flush@?$_Fmt_iterator_buffer@V?$back_insert_iterator@V?$basic_string@DU?$char_traits@D@std@@V?$allocator@D@2@@std@@@std@@DU_Fmt_buffer_traits@2@@std@@AEAAXXZ ; std::_Fmt_iterator_buffer<std::back_insert_iterator<std::basic_string<char,std::char_traits<char>,std::allocator<char> > >,char,std::_Fmt_buffer_traits>::_Flush
PUBLIC	?allocate@?$allocator@D@std@@QEAAPEAD_K@Z	; std::allocator<char>::allocate
PUBLIC	??0?$back_insert_iterator@V?$_Fmt_buffer@D@std@@@std@@QEAA@AEAV?$_Fmt_buffer@D@1@@Z ; std::back_insert_iterator<std::_Fmt_buffer<char> >::back_insert_iterator<std::_Fmt_buffer<char> >
PUBLIC	?_Get_lazy_locale@?$basic_format_context@V?$back_insert_iterator@V?$_Fmt_buffer@D@std@@@std@@D@std@@QEBA?AV_Lazy_locale@2@XZ ; std::basic_format_context<std::back_insert_iterator<std::_Fmt_buffer<char> >,char>::_Get_lazy_locale
PUBLIC	?_On_align@?$_Specs_setter@D@std@@QEAAXW4_Fmt_align@2@@Z ; std::_Specs_setter<char>::_On_align
PUBLIC	?_On_fill@?$_Specs_setter@D@std@@QEAAXV?$basic_string_view@DU?$char_traits@D@std@@@2@@Z ; std::_Specs_setter<char>::_On_fill
PUBLIC	?_On_width@?$_Specs_setter@D@std@@QEAAXH@Z	; std::_Specs_setter<char>::_On_width
PUBLIC	?_On_type@?$_Specs_setter@D@std@@QEAAXD@Z	; std::_Specs_setter<char>::_On_type
PUBLIC	?_On_precision@?$_Specs_checker@V?$_Dynamic_specs_handler@V?$basic_format_parse_context@D@std@@@std@@@std@@QEAAXH@Z ; std::_Specs_checker<std::_Dynamic_specs_handler<std::basic_format_parse_context<char> > >::_On_precision
PUBLIC	?_On_auto_id@?$_Id_adapter@D@std@@QEAAXXZ	; std::_Id_adapter<char>::_On_auto_id
PUBLIC	?_On_manual_id@?$_Id_adapter@D@std@@QEAAX_K@Z	; std::_Id_adapter<char>::_On_manual_id
PUBLIC	?_Grow@?$_Fmt_iterator_buffer@V?$back_insert_iterator@V?$basic_string@DU?$char_traits@D@std@@V?$allocator@D@2@@std@@@std@@DU_Fmt_buffer_traits@2@@std@@EEAAX_K@Z ; std::_Fmt_iterator_buffer<std::back_insert_iterator<std::basic_string<char,std::char_traits<char>,std::allocator<char> > >,char,std::_Fmt_buffer_traits>::_Grow
PUBLIC	??0?$_Fmt_iterator_buffer@V?$back_insert_iterator@V?$basic_string@DU?$char_traits@D@std@@V?$allocator@D@2@@std@@@std@@DU_Fmt_buffer_traits@2@@std@@QEAA@V?$back_insert_iterator@V?$basic_string@DU?$char_traits@D@std@@V?$allocator@D@2@@std@@@1@_J@Z ; std::_Fmt_iterator_buffer<std::back_insert_iterator<std::basic_string<char,std::char_traits<char>,std::allocator<char> > >,char,std::_Fmt_buffer_traits>::_Fmt_iterator_buffer<std::back_insert_iterator<std::basic_string<char,std::char_traits<char>,std::allocator<char> > >,char,std::_Fmt_buffer_traits>
PUBLIC	??1?$_Fmt_iterator_buffer@V?$back_insert_iterator@V?$basic_string@DU?$char_traits@D@std@@V?$allocator@D@2@@std@@@std@@DU_Fmt_buffer_traits@2@@std@@QEAA@XZ ; std::_Fmt_iterator_buffer<std::back_insert_iterator<std::basic_string<char,std::char_traits<char>,std::allocator<char> > >,char,std::_Fmt_buffer_traits>::~_Fmt_iterator_buffer<std::back_insert_iterator<std::basic_string<char,std::char_traits<char>,std::allocator<char> > >,char,std::_Fmt_buffer_traits>
PUBLIC	?_Out@?$_Fmt_iterator_buffer@V?$back_insert_iterator@V?$basic_string@DU?$char_traits@D@std@@V?$allocator@D@2@@std@@@std@@DU_Fmt_buffer_traits@2@@std@@QEAA?AV?$back_insert_iterator@V?$basic_string@DU?$char_traits@D@std@@V?$allocator@D@2@@std@@@2@XZ ; std::_Fmt_iterator_buffer<std::back_insert_iterator<std::basic_string<char,std::char_traits<char>,std::allocator<char> > >,char,std::_Fmt_buffer_traits>::_Out
PUBLIC	??0?$_Format_handler@D@__p2286@std@@QEAA@V?$back_insert_iterator@V?$_Fmt_buffer@D@std@@@2@V?$basic_string_view@DU?$char_traits@D@std@@@2@V?$basic_format_args@V?$basic_format_context@V?$back_insert_iterator@V?$_Fmt_buffer@D@std@@@std@@D@std@@@2@@Z ; std::__p2286::_Format_handler<char>::_Format_handler<char>
PUBLIC	??0?$_Width_adapter@DAEAV?$_Specs_checker@V?$_Dynamic_specs_handler@V?$basic_format_parse_context@D@std@@@std@@@std@@@std@@QEAA@AEAV?$_Specs_checker@V?$_Dynamic_specs_handler@V?$basic_format_parse_context@D@std@@@std@@@1@@Z ; std::_Width_adapter<char,std::_Specs_checker<std::_Dynamic_specs_handler<std::basic_format_parse_context<char> > > &>::_Width_adapter<char,std::_Specs_checker<std::_Dynamic_specs_handler<std::basic_format_parse_context<char> > > &>
PUBLIC	??0?$_Precision_adapter@DAEAV?$_Specs_checker@V?$_Dynamic_specs_handler@V?$basic_format_parse_context@D@std@@@std@@@std@@@std@@QEAA@AEAV?$_Specs_checker@V?$_Dynamic_specs_handler@V?$basic_format_parse_context@D@std@@@std@@@1@@Z ; std::_Precision_adapter<char,std::_Specs_checker<std::_Dynamic_specs_handler<std::basic_format_parse_context<char> > > &>::_Precision_adapter<char,std::_Specs_checker<std::_Dynamic_specs_handler<std::basic_format_parse_context<char> > > &>
PUBLIC	?__autoclassinit2@?$_Fmt_iterator_buffer@V?$back_insert_iterator@V?$basic_string@DU?$char_traits@D@std@@V?$allocator@D@2@@std@@@std@@DU_Fmt_buffer_traits@2@@std@@QEAAX_K@Z ; std::_Fmt_iterator_buffer<std::back_insert_iterator<std::basic_string<char,std::char_traits<char>,std::allocator<char> > >,char,std::_Fmt_buffer_traits>::__autoclassinit2
PUBLIC	??$bit_cast@Vhandle@?$basic_format_arg@V?$basic_format_context@V?$back_insert_iterator@V?$_Fmt_buffer@D@std@@@std@@D@std@@@std@@$$BY0BA@E$0A@@std@@YA?AVhandle@?$basic_format_arg@V?$basic_format_context@V?$back_insert_iterator@V?$_Fmt_buffer@D@std@@@std@@D@std@@@0@AEAY0BA@$$CBE@Z ; std::bit_cast<std::basic_format_arg<std::basic_format_context<std::back_insert_iterator<std::_Fmt_buffer<char> >,char> >::handle,unsigned char [16],0>
PUBLIC	??$bit_cast@PEBD$$BY07E$0A@@std@@YAPEBDAEAY07$$CBE@Z ; std::bit_cast<char const *,unsigned char [8],0>
PUBLIC	??$bit_cast@PEBX$$BY07E$0A@@std@@YAPEBXAEAY07$$CBE@Z ; std::bit_cast<void const *,unsigned char [8],0>
PUBLIC	??$bit_cast@O$$BY07E$0A@@std@@YAOAEAY07$$CBE@Z	; std::bit_cast<long double,unsigned char [8],0>
PUBLIC	??$bit_cast@N$$BY07E$0A@@std@@YANAEAY07$$CBE@Z	; std::bit_cast<double,unsigned char [8],0>
PUBLIC	??$bit_cast@M$$BY03E$0A@@std@@YAMAEAY03$$CBE@Z	; std::bit_cast<float,unsigned char [4],0>
PUBLIC	??$bit_cast@D$$BY00E$0A@@std@@YADAEAY00$$CBE@Z	; std::bit_cast<char,unsigned char [1],0>
PUBLIC	??$bit_cast@_N$$BY00E$0A@@std@@YA_NAEAY00$$CBE@Z ; std::bit_cast<bool,unsigned char [1],0>
PUBLIC	??$bit_cast@_K$$BY07E$0A@@std@@YA_KAEAY07$$CBE@Z ; std::bit_cast<unsigned __int64,unsigned char [8],0>
PUBLIC	??$bit_cast@_J$$BY07E$0A@@std@@YA_JAEAY07$$CBE@Z ; std::bit_cast<__int64,unsigned char [8],0>
PUBLIC	??$bit_cast@I$$BY03E$0A@@std@@YAIAEAY03$$CBE@Z	; std::bit_cast<unsigned int,unsigned char [4],0>
PUBLIC	??$bit_cast@H$$BY03E$0A@@std@@YAHAEAY03$$CBE@Z	; std::bit_cast<int,unsigned char [4],0>
PUBLIC	??$_Reallocate_grow_by@V<lambda_1>@?1??reserve@?$basic_string@DU?$char_traits@D@std@@V?$allocator@D@2@@std@@QEAAX_K@Z@$$V@?$basic_string@DU?$char_traits@D@std@@V?$allocator@D@2@@std@@AEAAAEAV01@_KV<lambda_1>@?1??reserve@01@QEAAX0@Z@@Z ; std::basic_string<char,std::char_traits<char>,std::allocator<char> >::_Reallocate_grow_by<`std::basic_string<char,std::char_traits<char>,std::allocator<char> >::reserve'::`2'::<lambda_1> >
PUBLIC	??$bit_cast@V?$basic_string_view@DU?$char_traits@D@std@@@std@@$$BY0BA@E$0A@@std@@YA?AV?$basic_string_view@DU?$char_traits@D@std@@@0@AEAY0BA@$$CBE@Z ; std::bit_cast<std::basic_string_view<char,std::char_traits<char> >,unsigned char [16],0>
PUBLIC	??$_Adl_verify_range@V?$_String_view_iterator@U?$char_traits@D@std@@@std@@V12@@std@@YAXAEBV?$_String_view_iterator@U?$char_traits@D@std@@@0@0@Z ; std::_Adl_verify_range<std::_String_view_iterator<std::char_traits<char> >,std::_String_view_iterator<std::char_traits<char> > >
PUBLIC	??$move@AEAV?$back_insert_iterator@V?$_Fmt_buffer@D@std@@@std@@@std@@YA$$QEAV?$back_insert_iterator@V?$_Fmt_buffer@D@std@@@0@AEAV10@@Z ; std::move<std::back_insert_iterator<std::_Fmt_buffer<char> > &>
PUBLIC	??$_Parse_precision@DAEAV?$_Specs_checker@V?$_Dynamic_specs_handler@V?$basic_format_parse_context@D@std@@@std@@@std@@@std@@YAPEBDPEBD0AEAV?$_Specs_checker@V?$_Dynamic_specs_handler@V?$basic_format_parse_context@D@std@@@std@@@0@@Z ; std::_Parse_precision<char,std::_Specs_checker<std::_Dynamic_specs_handler<std::basic_format_parse_context<char> > > &>
PUBLIC	??$_Parse_width@DAEAV?$_Specs_checker@V?$_Dynamic_specs_handler@V?$basic_format_parse_context@D@std@@@std@@@std@@@std@@YAPEBDPEBD0AEAV?$_Specs_checker@V?$_Dynamic_specs_handler@V?$basic_format_parse_context@D@std@@@std@@@0@@Z ; std::_Parse_width<char,std::_Specs_checker<std::_Dynamic_specs_handler<std::basic_format_parse_context<char> > > &>
PUBLIC	??$_Parse_align@DAEAV?$_Specs_checker@V?$_Dynamic_specs_handler@V?$basic_format_parse_context@D@std@@@std@@@std@@@std@@YAPEBDPEBD0AEAV?$_Specs_checker@V?$_Dynamic_specs_handler@V?$basic_format_parse_context@D@std@@@std@@@0@@Z ; std::_Parse_align<char,std::_Specs_checker<std::_Dynamic_specs_handler<std::basic_format_parse_context<char> > > &>
PUBLIC	??$_Store_impl@Vhandle@?$basic_format_arg@V?$basic_format_context@V?$back_insert_iterator@V?$_Fmt_buffer@D@std@@@std@@D@std@@@std@@@?$_Format_arg_store@V?$basic_format_context@V?$back_insert_iterator@V?$_Fmt_buffer@D@std@@@std@@D@std@@AEAUnone@yw@@@std@@AEAAX_KW4_Basic_format_arg_type@1@AEBVhandle@?$basic_format_arg@V?$basic_format_context@V?$back_insert_iterator@V?$_Fmt_buffer@D@std@@@std@@D@std@@@1@@Z ; std::_Format_arg_store<std::basic_format_context<std::back_insert_iterator<std::_Fmt_buffer<char> >,char>,yw::none &>::_Store_impl<std::basic_format_arg<std::basic_format_context<std::back_insert_iterator<std::_Fmt_buffer<char> >,char> >::handle>
PUBLIC	?<lambda_invoker_cdecl>@<lambda_4_>@?0???$?0Unone@yw@@@handle@?$basic_format_arg@V?$basic_format_context@V?$back_insert_iterator@V?$_Fmt_buffer@D@std@@@std@@D@std@@@std@@QEAA@AEAUnone@yw@@@Z@SA@AEAV?$basic_format_parse_context@D@4@AEAV?$basic_format_context@V?$back_insert_iterator@V?$_Fmt_buffer@D@std@@@std@@D@4@PEBX@Z ; `std::basic_format_arg<std::basic_format_context<std::back_insert_iterator<std::_Fmt_buffer<char> >,char> >::handle::handle<yw::none>'::`1'::<lambda_4_>::<lambda_invoker_cdecl>
PUBLIC	??R<lambda_4_>@?0???$?0Unone@yw@@@handle@?$basic_format_arg@V?$basic_format_context@V?$back_insert_iterator@V?$_Fmt_buffer@D@std@@@std@@D@std@@@std@@QEAA@AEAUnone@yw@@@Z@QEBA@AEAV?$basic_format_parse_context@D@3@AEAV?$basic_format_context@V?$back_insert_iterator@V?$_Fmt_buffer@D@std@@@std@@D@3@PEBX@Z ; `std::basic_format_arg<std::basic_format_context<std::back_insert_iterator<std::_Fmt_buffer<char> >,char> >::handle::handle<yw::none>'::`1'::<lambda_4_>::operator()
PUBLIC	??$?0Unone@yw@@@handle@?$basic_format_arg@V?$basic_format_context@V?$back_insert_iterator@V?$_Fmt_buffer@D@std@@@std@@D@std@@@std@@QEAA@AEAUnone@yw@@@Z ; std::basic_format_arg<std::basic_format_context<std::back_insert_iterator<std::_Fmt_buffer<char> >,char> >::handle::handle<yw::none>
PUBLIC	??$_Seek_wrapped@PEBIAEAPEBI@std@@YAXAEAPEBI0@Z	; std::_Seek_wrapped<unsigned int const *,unsigned int const * &>
PUBLIC	??$_Next_iter@PEBI@std@@YAPEBIPEBI@Z		; std::_Next_iter<unsigned int const *>
PUBLIC	??$?RAEBIAEBI@?$less@X@std@@QEBA_NAEBI0@Z	; std::less<void>::operator()<unsigned int const &,unsigned int const &>
PUBLIC	??$next@PEBI@std@@YAPEBIPEBI_J@Z		; std::next<unsigned int const *>
PUBLIC	??$distance@PEBI@std@@YA_JPEBI0@Z		; std::distance<unsigned int const *>
PUBLIC	??$_Adl_verify_range@PEBIPEBI@std@@YAXAEBQEBI0@Z ; std::_Adl_verify_range<unsigned int const *,unsigned int const *>
PUBLIC	??$construct_at@PEADAEBQEAD$0A@@std@@YAPEAPEADQEAPEADAEBQEAD@Z ; std::construct_at<char *,char * const &,0>
PUBLIC	??$forward@AEBQEAD@std@@YAAEBQEADAEBQEAD@Z	; std::forward<char * const &>
PUBLIC	??$construct_at@D$$V$0A@@std@@YAPEADQEAD@Z	; std::construct_at<char,0>
PUBLIC	??$_Allocate_at_least_helper@V?$allocator@D@std@@@std@@YAPEADAEAV?$allocator@D@0@AEA_K@Z ; std::_Allocate_at_least_helper<std::allocator<char> >
PUBLIC	??$to_address@D@std@@YAPEADQEAD@Z		; std::to_address<char>
PUBLIC	??$__std_find_trivial@$$CBDD@@YAPEBDPEBD0D@Z	; __std_find_trivial<char const ,char>
PUBLIC	??$to_address@$$CBD@std@@YAPEBDQEBD@Z		; std::to_address<char const >
PUBLIC	??$_Could_compare_equal_to_value_type@PEBDD@std@@YA_NAEBD@Z ; std::_Could_compare_equal_to_value_type<char const *,char>
PUBLIC	??$_Parse_arg_id@DAEAU?$_Id_adapter@D@std@@@std@@YAPEBDPEBD0AEAU?$_Id_adapter@D@0@@Z ; std::_Parse_arg_id<char,std::_Id_adapter<char> &>
PUBLIC	??$vformat_to@V?$back_insert_iterator@V?$basic_string@DU?$char_traits@D@std@@V?$allocator@D@2@@std@@@std@@@__p2286@std@@YA?AV?$back_insert_iterator@V?$basic_string@DU?$char_traits@D@std@@V?$allocator@D@2@@std@@@1@V21@V?$basic_string_view@DU?$char_traits@D@std@@@1@V?$basic_format_args@V?$basic_format_context@V?$back_insert_iterator@V?$_Fmt_buffer@D@std@@@std@@D@std@@@1@@Z ; std::__p2286::vformat_to<std::back_insert_iterator<std::basic_string<char,std::char_traits<char>,std::allocator<char> > > >
PUBLIC	??$?RV?$basic_string_view@DU?$char_traits@D@std@@@std@@@?$_Arg_formatter@V?$back_insert_iterator@V?$_Fmt_buffer@D@std@@@std@@D@__p2286@std@@QEAA?AV?$back_insert_iterator@V?$_Fmt_buffer@D@std@@@2@V?$basic_string_view@DU?$char_traits@D@std@@@2@@Z ; std::__p2286::_Arg_formatter<std::back_insert_iterator<std::_Fmt_buffer<char> >,char>::operator()<std::basic_string_view<char,std::char_traits<char> > >
PUBLIC	??$?RPEBD@?$_Arg_formatter@V?$back_insert_iterator@V?$_Fmt_buffer@D@std@@@std@@D@__p2286@std@@QEAA?AV?$back_insert_iterator@V?$_Fmt_buffer@D@std@@@2@PEBD@Z ; std::__p2286::_Arg_formatter<std::back_insert_iterator<std::_Fmt_buffer<char> >,char>::operator()<char const *>
PUBLIC	??$?RPEBX@?$_Arg_formatter@V?$back_insert_iterator@V?$_Fmt_buffer@D@std@@@std@@D@__p2286@std@@QEAA?AV?$back_insert_iterator@V?$_Fmt_buffer@D@std@@@2@PEBX@Z ; std::__p2286::_Arg_formatter<std::back_insert_iterator<std::_Fmt_buffer<char> >,char>::operator()<void const *>
PUBLIC	??$?RO@?$_Arg_formatter@V?$back_insert_iterator@V?$_Fmt_buffer@D@std@@@std@@D@__p2286@std@@QEAA?AV?$back_insert_iterator@V?$_Fmt_buffer@D@std@@@2@O@Z ; std::__p2286::_Arg_formatter<std::back_insert_iterator<std::_Fmt_buffer<char> >,char>::operator()<long double>
PUBLIC	??$?RN@?$_Arg_formatter@V?$back_insert_iterator@V?$_Fmt_buffer@D@std@@@std@@D@__p2286@std@@QEAA?AV?$back_insert_iterator@V?$_Fmt_buffer@D@std@@@2@N@Z ; std::__p2286::_Arg_formatter<std::back_insert_iterator<std::_Fmt_buffer<char> >,char>::operator()<double>
PUBLIC	??$?RM@?$_Arg_formatter@V?$back_insert_iterator@V?$_Fmt_buffer@D@std@@@std@@D@__p2286@std@@QEAA?AV?$back_insert_iterator@V?$_Fmt_buffer@D@std@@@2@M@Z ; std::__p2286::_Arg_formatter<std::back_insert_iterator<std::_Fmt_buffer<char> >,char>::operator()<float>
PUBLIC	??$?RD@?$_Arg_formatter@V?$back_insert_iterator@V?$_Fmt_buffer@D@std@@@std@@D@__p2286@std@@QEAA?AV?$back_insert_iterator@V?$_Fmt_buffer@D@std@@@2@D@Z ; std::__p2286::_Arg_formatter<std::back_insert_iterator<std::_Fmt_buffer<char> >,char>::operator()<char>
PUBLIC	??$?R_N@?$_Arg_formatter@V?$back_insert_iterator@V?$_Fmt_buffer@D@std@@@std@@D@__p2286@std@@QEAA?AV?$back_insert_iterator@V?$_Fmt_buffer@D@std@@@2@_N@Z ; std::__p2286::_Arg_formatter<std::back_insert_iterator<std::_Fmt_buffer<char> >,char>::operator()<bool>
PUBLIC	??$?R_K@?$_Arg_formatter@V?$back_insert_iterator@V?$_Fmt_buffer@D@std@@@std@@D@__p2286@std@@QEAA?AV?$back_insert_iterator@V?$_Fmt_buffer@D@std@@@2@_K@Z ; std::__p2286::_Arg_formatter<std::back_insert_iterator<std::_Fmt_buffer<char> >,char>::operator()<unsigned __int64>
PUBLIC	??$?R_J@?$_Arg_formatter@V?$back_insert_iterator@V?$_Fmt_buffer@D@std@@@std@@D@__p2286@std@@QEAA?AV?$back_insert_iterator@V?$_Fmt_buffer@D@std@@@2@_J@Z ; std::__p2286::_Arg_formatter<std::back_insert_iterator<std::_Fmt_buffer<char> >,char>::operator()<__int64>
PUBLIC	??$?RI@?$_Arg_formatter@V?$back_insert_iterator@V?$_Fmt_buffer@D@std@@@std@@D@__p2286@std@@QEAA?AV?$back_insert_iterator@V?$_Fmt_buffer@D@std@@@2@I@Z ; std::__p2286::_Arg_formatter<std::back_insert_iterator<std::_Fmt_buffer<char> >,char>::operator()<unsigned int>
PUBLIC	??$?RH@?$_Arg_formatter@V?$back_insert_iterator@V?$_Fmt_buffer@D@std@@@std@@D@__p2286@std@@QEAA?AV?$back_insert_iterator@V?$_Fmt_buffer@D@std@@@2@H@Z ; std::__p2286::_Arg_formatter<std::back_insert_iterator<std::_Fmt_buffer<char> >,char>::operator()<int>
PUBLIC	??$?RUmonostate@std@@@?$_Arg_formatter@V?$back_insert_iterator@V?$_Fmt_buffer@D@std@@@std@@D@__p2286@std@@QEAA?AV?$back_insert_iterator@V?$_Fmt_buffer@D@std@@@2@Umonostate@2@@Z ; std::__p2286::_Arg_formatter<std::back_insert_iterator<std::_Fmt_buffer<char> >,char>::operator()<std::monostate>
PUBLIC	??$forward@U?$_Arg_formatter@V?$back_insert_iterator@V?$_Fmt_buffer@D@std@@@std@@D@__p2286@std@@@std@@YA$$QEAU?$_Arg_formatter@V?$back_insert_iterator@V?$_Fmt_buffer@D@std@@@std@@D@__p2286@0@AEAU120@@Z ; std::forward<std::__p2286::_Arg_formatter<std::back_insert_iterator<std::_Fmt_buffer<char> >,char> >
PUBLIC	??$_Make_from@QEBD@?$basic_format_arg@V?$basic_format_context@V?$back_insert_iterator@V?$_Fmt_buffer@D@std@@@std@@D@std@@@std@@SA?AV01@AEBQEBD@Z ; std::basic_format_arg<std::basic_format_context<std::back_insert_iterator<std::_Fmt_buffer<char> >,char> >::_Make_from<char const * const>
PUBLIC	??$addressof@U?$_Dynamic_format_specs@D@std@@@std@@YAPEAU?$_Dynamic_format_specs@D@0@AEAU10@@Z ; std::addressof<std::_Dynamic_format_specs<char> >
PUBLIC	??$addressof@V?$basic_format_context@V?$back_insert_iterator@V?$_Fmt_buffer@D@std@@@std@@D@std@@@std@@YAPEAV?$basic_format_context@V?$back_insert_iterator@V?$_Fmt_buffer@D@std@@@std@@D@0@AEAV10@@Z ; std::addressof<std::basic_format_context<std::back_insert_iterator<std::_Fmt_buffer<char> >,char> >
PUBLIC	??$_Visit@V_Precision_checker@std@@@?$basic_format_arg@V?$basic_format_context@V?$back_insert_iterator@V?$_Fmt_buffer@D@std@@@std@@D@std@@@std@@QEAA?A_T$$QEAV_Precision_checker@1@@Z ; std::basic_format_arg<std::basic_format_context<std::back_insert_iterator<std::_Fmt_buffer<char> >,char> >::_Visit<std::_Precision_checker>
PUBLIC	??$visit_format_arg@V_Precision_checker@std@@V?$basic_format_context@V?$back_insert_iterator@V?$_Fmt_buffer@D@std@@@std@@D@2@@std@@YA?A_T$$QEAV_Precision_checker@0@V?$basic_format_arg@V?$basic_format_context@V?$back_insert_iterator@V?$_Fmt_buffer@D@std@@@std@@D@std@@@0@@Z ; std::visit_format_arg<std::_Precision_checker,std::basic_format_context<std::back_insert_iterator<std::_Fmt_buffer<char> >,char> >
PUBLIC	??$_Get_dynamic_specs@V_Precision_checker@std@@V?$basic_format_arg@V?$basic_format_context@V?$back_insert_iterator@V?$_Fmt_buffer@D@std@@@std@@D@std@@@2@@std@@YAHV?$basic_format_arg@V?$basic_format_context@V?$back_insert_iterator@V?$_Fmt_buffer@D@std@@@std@@D@std@@@0@@Z ; std::_Get_dynamic_specs<std::_Precision_checker,std::basic_format_arg<std::basic_format_context<std::back_insert_iterator<std::_Fmt_buffer<char> >,char> > >
PUBLIC	??$_Visit@V_Width_checker@std@@@?$basic_format_arg@V?$basic_format_context@V?$back_insert_iterator@V?$_Fmt_buffer@D@std@@@std@@D@std@@@std@@QEAA?A_T$$QEAV_Width_checker@1@@Z ; std::basic_format_arg<std::basic_format_context<std::back_insert_iterator<std::_Fmt_buffer<char> >,char> >::_Visit<std::_Width_checker>
PUBLIC	??$visit_format_arg@V_Width_checker@std@@V?$basic_format_context@V?$back_insert_iterator@V?$_Fmt_buffer@D@std@@@std@@D@2@@std@@YA?A_T$$QEAV_Width_checker@0@V?$basic_format_arg@V?$basic_format_context@V?$back_insert_iterator@V?$_Fmt_buffer@D@std@@@std@@D@std@@@0@@Z ; std::visit_format_arg<std::_Width_checker,std::basic_format_context<std::back_insert_iterator<std::_Fmt_buffer<char> >,char> >
PUBLIC	??$_Get_dynamic_specs@V_Width_checker@std@@V?$basic_format_arg@V?$basic_format_context@V?$back_insert_iterator@V?$_Fmt_buffer@D@std@@@std@@D@std@@@2@@std@@YAHV?$basic_format_arg@V?$basic_format_context@V?$back_insert_iterator@V?$_Fmt_buffer@D@std@@@std@@D@std@@@0@@Z ; std::_Get_dynamic_specs<std::_Width_checker,std::basic_format_arg<std::basic_format_context<std::back_insert_iterator<std::_Fmt_buffer<char> >,char> > >
PUBLIC	??$?0AEAPEAV_Facet_base@std@@@?$_Compressed_pair@U?$default_delete@V_Facet_base@std@@@std@@PEAV_Facet_base@2@$00@std@@QEAA@U_Zero_then_variadic_args_t@1@AEAPEAV_Facet_base@1@@Z ; std::_Compressed_pair<std::default_delete<std::_Facet_base>,std::_Facet_base *,1>::_Compressed_pair<std::default_delete<std::_Facet_base>,std::_Facet_base *,1><std::_Facet_base * &>
PUBLIC	??$end@D$0DAF@@std@@YAPEADAEAY0DAF@D@Z		; std::end<char,773>
PUBLIC	??$find_if@PEB_KV<lambda_1>@?1???R1?1???$_Floating_to_chars_general_precision@N@std@@YA?AUto_chars_result@2@PEADQEADNH@Z@QEBA@XZ@@std@@YAPEB_KPEB_KQEB_KV<lambda_1>@?1???R1?1???$_Floating_to_chars_general_precision@N@0@YA?AUto_chars_result@0@PEADQEADNH@Z@QEBA@XZ@@Z ; std::find_if<unsigned __int64 const *,``std::_Floating_to_chars_general_precision<double>'::`2'::<lambda_1>::operator()'::`2'::<lambda_1> >
PUBLIC	??$_Get_unwrapped@AEBQEB_K@std@@YA?A_TAEBQEB_K@Z ; std::_Get_unwrapped<unsigned __int64 const * const &>
PUBLIC	??$_Get_unwrapped@AEAPEB_K@std@@YA?A_TAEAPEB_K@Z ; std::_Get_unwrapped<unsigned __int64 const * &>
PUBLIC	??$lower_bound@PEB_K_KU?$less@X@std@@@std@@YAPEB_KPEB_KQEB_KAEB_KU?$less@X@0@@Z ; std::lower_bound<unsigned __int64 const *,unsigned __int64,std::less<void> >
PUBLIC	??$find@PEADD@std@@YAPEADPEADQEADAEBD@Z		; std::find<char *,char>
PUBLIC	??$end@D$0HF@@std@@YAPEADAEAY0HF@D@Z		; std::end<char,117>
PUBLIC	??$_Get_unwrapped@AEBQEBI@std@@YA?A_TAEBQEBI@Z	; std::_Get_unwrapped<unsigned int const * const &>
PUBLIC	??$find_if@PEBIV<lambda_1>@?1???R1?1???$_Floating_to_chars_general_precision@M@std@@YA?AUto_chars_result@2@PEADQEADMH@Z@QEBA@XZ@@std@@YAPEBIPEBIQEBIV<lambda_1>@?1???R1?1???$_Floating_to_chars_general_precision@M@0@YA?AUto_chars_result@0@PEADQEADMH@Z@QEBA@XZ@@Z ; std::find_if<unsigned int const *,``std::_Floating_to_chars_general_precision<float>'::`2'::<lambda_1>::operator()'::`2'::<lambda_1> >
PUBLIC	??$min@H@std@@YAAEBHAEBH0@Z			; std::min<int>
PUBLIC	??$__d2fixed_buffered_n@D@std@@YA?AU?$pair@PEADW4errc@std@@@0@PEADQEADNI@Z ; std::__d2fixed_buffered_n<char>
PUBLIC	??$__d2s_buffered_n@D@std@@YA?AU?$pair@PEADW4errc@std@@@0@QEAD0NW4chars_format@0@@Z ; std::__d2s_buffered_n<char>
PUBLIC	??$__f2s_buffered_n@D@std@@YA?AU?$pair@PEADW4errc@std@@@0@QEAD0MW4chars_format@0@@Z ; std::__f2s_buffered_n<char>
PUBLIC	??$_Copy_memmove_n@PEADPEAD@std@@YAPEADPEAD_K0@Z ; std::_Copy_memmove_n<char *,char *>
PUBLIC	??$_Seek_wrapped@PEADAEAPEAD@std@@YAXAEAPEAD0@Z	; std::_Seek_wrapped<char *,char * &>
PUBLIC	??$_Seek_wrapped@PEADPEAD@std@@YAXAEAPEAD$$QEAPEAD@Z ; std::_Seek_wrapped<char *,char *>
PUBLIC	??$_Fill_memset@PEADD@std@@YAXPEADD_K@Z		; std::_Fill_memset<char *,char>
PUBLIC	??$_On_type@D@?$_Specs_checker@V?$_Dynamic_specs_handler@V?$basic_format_parse_context@D@std@@@std@@@std@@QEAAXD@Z ; std::_Specs_checker<std::_Dynamic_specs_handler<std::basic_format_parse_context<char> > >::_On_type<char>
PUBLIC	??$invoke@V<lambda_1>@?1???$_Get_fmt_codec@D@std@@YAAEBV?$_Fmt_codec@D$0A@@2@XZ@@std@@YAX$$QEAV<lambda_1>@?1???$_Get_fmt_codec@D@0@YAAEBV?$_Fmt_codec@D$0A@@0@XZ@@Z ; std::invoke<`std::_Get_fmt_codec<char>'::`2'::<lambda_1> >
PUBLIC	??$forward@V<lambda_1>@?1???$_Get_fmt_codec@D@std@@YAAEBV?$_Fmt_codec@D$0A@@2@XZ@@std@@YA$$QEAV<lambda_1>@?1???$_Get_fmt_codec@D@0@YAAEBV?$_Fmt_codec@D$0A@@0@XZ@AEAV1?1???$_Get_fmt_codec@D@0@YAAEBV20@XZ@@Z ; std::forward<`std::_Get_fmt_codec<char>'::`2'::<lambda_1> >
PUBLIC	??0?$basic_format_arg@V?$basic_format_context@V?$back_insert_iterator@V?$_Fmt_buffer@D@std@@@std@@D@std@@@std@@QEAA@XZ ; std::basic_format_arg<std::basic_format_context<std::back_insert_iterator<std::_Fmt_buffer<char> >,char> >::basic_format_arg<std::basic_format_context<std::back_insert_iterator<std::_Fmt_buffer<char> >,char> >
PUBLIC	??0?$basic_format_arg@V?$basic_format_context@V?$back_insert_iterator@V?$_Fmt_buffer@D@std@@@std@@D@std@@@std@@AEAA@H@Z ; std::basic_format_arg<std::basic_format_context<std::back_insert_iterator<std::_Fmt_buffer<char> >,char> >::basic_format_arg<std::basic_format_context<std::back_insert_iterator<std::_Fmt_buffer<char> >,char> >
PUBLIC	??0?$basic_format_arg@V?$basic_format_context@V?$back_insert_iterator@V?$_Fmt_buffer@D@std@@@std@@D@std@@@std@@AEAA@I@Z ; std::basic_format_arg<std::basic_format_context<std::back_insert_iterator<std::_Fmt_buffer<char> >,char> >::basic_format_arg<std::basic_format_context<std::back_insert_iterator<std::_Fmt_buffer<char> >,char> >
PUBLIC	??0?$basic_format_arg@V?$basic_format_context@V?$back_insert_iterator@V?$_Fmt_buffer@D@std@@@std@@D@std@@@std@@AEAA@_J@Z ; std::basic_format_arg<std::basic_format_context<std::back_insert_iterator<std::_Fmt_buffer<char> >,char> >::basic_format_arg<std::basic_format_context<std::back_insert_iterator<std::_Fmt_buffer<char> >,char> >
PUBLIC	??0?$basic_format_arg@V?$basic_format_context@V?$back_insert_iterator@V?$_Fmt_buffer@D@std@@@std@@D@std@@@std@@AEAA@_K@Z ; std::basic_format_arg<std::basic_format_context<std::back_insert_iterator<std::_Fmt_buffer<char> >,char> >::basic_format_arg<std::basic_format_context<std::back_insert_iterator<std::_Fmt_buffer<char> >,char> >
PUBLIC	??0?$basic_format_arg@V?$basic_format_context@V?$back_insert_iterator@V?$_Fmt_buffer@D@std@@@std@@D@std@@@std@@AEAA@_N@Z ; std::basic_format_arg<std::basic_format_context<std::back_insert_iterator<std::_Fmt_buffer<char> >,char> >::basic_format_arg<std::basic_format_context<std::back_insert_iterator<std::_Fmt_buffer<char> >,char> >
PUBLIC	??0?$basic_format_arg@V?$basic_format_context@V?$back_insert_iterator@V?$_Fmt_buffer@D@std@@@std@@D@std@@@std@@AEAA@D@Z ; std::basic_format_arg<std::basic_format_context<std::back_insert_iterator<std::_Fmt_buffer<char> >,char> >::basic_format_arg<std::basic_format_context<std::back_insert_iterator<std::_Fmt_buffer<char> >,char> >
PUBLIC	??0?$basic_format_arg@V?$basic_format_context@V?$back_insert_iterator@V?$_Fmt_buffer@D@std@@@std@@D@std@@@std@@AEAA@M@Z ; std::basic_format_arg<std::basic_format_context<std::back_insert_iterator<std::_Fmt_buffer<char> >,char> >::basic_format_arg<std::basic_format_context<std::back_insert_iterator<std::_Fmt_buffer<char> >,char> >
PUBLIC	??0?$basic_format_arg@V?$basic_format_context@V?$back_insert_iterator@V?$_Fmt_buffer@D@std@@@std@@D@std@@@std@@AEAA@N@Z ; std::basic_format_arg<std::basic_format_context<std::back_insert_iterator<std::_Fmt_buffer<char> >,char> >::basic_format_arg<std::basic_format_context<std::back_insert_iterator<std::_Fmt_buffer<char> >,char> >
PUBLIC	??0?$basic_format_arg@V?$basic_format_context@V?$back_insert_iterator@V?$_Fmt_buffer@D@std@@@std@@D@std@@@std@@AEAA@O@Z ; std::basic_format_arg<std::basic_format_context<std::back_insert_iterator<std::_Fmt_buffer<char> >,char> >::basic_format_arg<std::basic_format_context<std::back_insert_iterator<std::_Fmt_buffer<char> >,char> >
PUBLIC	??0?$basic_format_arg@V?$basic_format_context@V?$back_insert_iterator@V?$_Fmt_buffer@D@std@@@std@@D@std@@@std@@AEAA@PEBX@Z ; std::basic_format_arg<std::basic_format_context<std::back_insert_iterator<std::_Fmt_buffer<char> >,char> >::basic_format_arg<std::basic_format_context<std::back_insert_iterator<std::_Fmt_buffer<char> >,char> >
PUBLIC	??0?$basic_format_arg@V?$basic_format_context@V?$back_insert_iterator@V?$_Fmt_buffer@D@std@@@std@@D@std@@@std@@AEAA@PEBD@Z ; std::basic_format_arg<std::basic_format_context<std::back_insert_iterator<std::_Fmt_buffer<char> >,char> >::basic_format_arg<std::basic_format_context<std::back_insert_iterator<std::_Fmt_buffer<char> >,char> >
PUBLIC	??0?$basic_format_arg@V?$basic_format_context@V?$back_insert_iterator@V?$_Fmt_buffer@D@std@@@std@@D@std@@@std@@AEAA@V?$basic_string_view@DU?$char_traits@D@std@@@1@@Z ; std::basic_format_arg<std::basic_format_context<std::back_insert_iterator<std::_Fmt_buffer<char> >,char> >::basic_format_arg<std::basic_format_context<std::back_insert_iterator<std::_Fmt_buffer<char> >,char> >
PUBLIC	??0?$basic_format_arg@V?$basic_format_context@V?$back_insert_iterator@V?$_Fmt_buffer@D@std@@@std@@D@std@@@std@@AEAA@Vhandle@01@@Z ; std::basic_format_arg<std::basic_format_context<std::back_insert_iterator<std::_Fmt_buffer<char> >,char> >::basic_format_arg<std::basic_format_context<std::back_insert_iterator<std::_Fmt_buffer<char> >,char> >
PUBLIC	?remove_prefix@?$basic_string_view@DU?$char_traits@D@std@@@std@@QEAAX_K@Z ; std::basic_string_view<char,std::char_traits<char> >::remove_prefix
PUBLIC	??$_Get_value_from_memory@Vhandle@?$basic_format_arg@V?$basic_format_context@V?$back_insert_iterator@V?$_Fmt_buffer@D@std@@@std@@D@std@@@std@@@?$basic_format_args@V?$basic_format_context@V?$back_insert_iterator@V?$_Fmt_buffer@D@std@@@std@@D@std@@@std@@CA?A_PQEBE@Z ; std::basic_format_args<std::basic_format_context<std::back_insert_iterator<std::_Fmt_buffer<char> >,char> >::_Get_value_from_memory<std::basic_format_arg<std::basic_format_context<std::back_insert_iterator<std::_Fmt_buffer<char> >,char> >::handle>
PUBLIC	??$_Get_value_from_memory@PEBD@?$basic_format_args@V?$basic_format_context@V?$back_insert_iterator@V?$_Fmt_buffer@D@std@@@std@@D@std@@@std@@CA?A_PQEBE@Z ; std::basic_format_args<std::basic_format_context<std::back_insert_iterator<std::_Fmt_buffer<char> >,char> >::_Get_value_from_memory<char const *>
PUBLIC	??$_Get_value_from_memory@PEBX@?$basic_format_args@V?$basic_format_context@V?$back_insert_iterator@V?$_Fmt_buffer@D@std@@@std@@D@std@@@std@@CA?A_PQEBE@Z ; std::basic_format_args<std::basic_format_context<std::back_insert_iterator<std::_Fmt_buffer<char> >,char> >::_Get_value_from_memory<void const *>
PUBLIC	??$_Get_value_from_memory@O@?$basic_format_args@V?$basic_format_context@V?$back_insert_iterator@V?$_Fmt_buffer@D@std@@@std@@D@std@@@std@@CA?A_PQEBE@Z ; std::basic_format_args<std::basic_format_context<std::back_insert_iterator<std::_Fmt_buffer<char> >,char> >::_Get_value_from_memory<long double>
PUBLIC	??$_Get_value_from_memory@N@?$basic_format_args@V?$basic_format_context@V?$back_insert_iterator@V?$_Fmt_buffer@D@std@@@std@@D@std@@@std@@CA?A_PQEBE@Z ; std::basic_format_args<std::basic_format_context<std::back_insert_iterator<std::_Fmt_buffer<char> >,char> >::_Get_value_from_memory<double>
PUBLIC	??$_Get_value_from_memory@M@?$basic_format_args@V?$basic_format_context@V?$back_insert_iterator@V?$_Fmt_buffer@D@std@@@std@@D@std@@@std@@CA?A_PQEBE@Z ; std::basic_format_args<std::basic_format_context<std::back_insert_iterator<std::_Fmt_buffer<char> >,char> >::_Get_value_from_memory<float>
PUBLIC	??$_Get_value_from_memory@D@?$basic_format_args@V?$basic_format_context@V?$back_insert_iterator@V?$_Fmt_buffer@D@std@@@std@@D@std@@@std@@CA?A_PQEBE@Z ; std::basic_format_args<std::basic_format_context<std::back_insert_iterator<std::_Fmt_buffer<char> >,char> >::_Get_value_from_memory<char>
PUBLIC	??$_Get_value_from_memory@_N@?$basic_format_args@V?$basic_format_context@V?$back_insert_iterator@V?$_Fmt_buffer@D@std@@@std@@D@std@@@std@@CA?A_PQEBE@Z ; std::basic_format_args<std::basic_format_context<std::back_insert_iterator<std::_Fmt_buffer<char> >,char> >::_Get_value_from_memory<bool>
PUBLIC	??$_Get_value_from_memory@_K@?$basic_format_args@V?$basic_format_context@V?$back_insert_iterator@V?$_Fmt_buffer@D@std@@@std@@D@std@@@std@@CA?A_PQEBE@Z ; std::basic_format_args<std::basic_format_context<std::back_insert_iterator<std::_Fmt_buffer<char> >,char> >::_Get_value_from_memory<unsigned __int64>
PUBLIC	??$_Get_value_from_memory@_J@?$basic_format_args@V?$basic_format_context@V?$back_insert_iterator@V?$_Fmt_buffer@D@std@@@std@@D@std@@@std@@CA?A_PQEBE@Z ; std::basic_format_args<std::basic_format_context<std::back_insert_iterator<std::_Fmt_buffer<char> >,char> >::_Get_value_from_memory<__int64>
PUBLIC	??$_Get_value_from_memory@I@?$basic_format_args@V?$basic_format_context@V?$back_insert_iterator@V?$_Fmt_buffer@D@std@@@std@@D@std@@@std@@CA?A_PQEBE@Z ; std::basic_format_args<std::basic_format_context<std::back_insert_iterator<std::_Fmt_buffer<char> >,char> >::_Get_value_from_memory<unsigned int>
PUBLIC	??$_Get_value_from_memory@H@?$basic_format_args@V?$basic_format_context@V?$back_insert_iterator@V?$_Fmt_buffer@D@std@@@std@@D@std@@@std@@CA?A_PQEBE@Z ; std::basic_format_args<std::basic_format_context<std::back_insert_iterator<std::_Fmt_buffer<char> >,char> >::_Get_value_from_memory<int>
PUBLIC	?get@?$basic_format_args@V?$basic_format_context@V?$back_insert_iterator@V?$_Fmt_buffer@D@std@@@std@@D@std@@@std@@QEBA?AV?$basic_format_arg@V?$basic_format_context@V?$back_insert_iterator@V?$_Fmt_buffer@D@std@@@std@@D@std@@@2@_K@Z ; std::basic_format_args<std::basic_format_context<std::back_insert_iterator<std::_Fmt_buffer<char> >,char> >::get
PUBLIC	?out@?$basic_format_context@V?$back_insert_iterator@V?$_Fmt_buffer@D@std@@@std@@D@std@@QEAA?AV?$back_insert_iterator@V?$_Fmt_buffer@D@std@@@2@XZ ; std::basic_format_context<std::back_insert_iterator<std::_Fmt_buffer<char> >,char>::out
PUBLIC	?_On_sign@?$_Specs_setter@D@std@@QEAAXW4_Fmt_sign@2@@Z ; std::_Specs_setter<char>::_On_sign
PUBLIC	?_On_hash@?$_Specs_setter@D@std@@QEAAXXZ	; std::_Specs_setter<char>::_On_hash
PUBLIC	?_On_zero@?$_Specs_setter@D@std@@QEAAXXZ	; std::_Specs_setter<char>::_On_zero
PUBLIC	?_On_localized@?$_Specs_setter@D@std@@QEAAXXZ	; std::_Specs_setter<char>::_On_localized
PUBLIC	?_Require_numeric_argument@?$_Specs_checker@V?$_Dynamic_specs_handler@V?$basic_format_parse_context@D@std@@@std@@@std@@QEBAXXZ ; std::_Specs_checker<std::_Dynamic_specs_handler<std::basic_format_parse_context<char> > >::_Require_numeric_argument
PUBLIC	?__autoclassinit2@?$basic_string_view@DU?$char_traits@D@std@@@std@@QEAAX_K@Z ; std::basic_string_view<char,std::char_traits<char> >::__autoclassinit2
PUBLIC	??R<lambda_1>@?1??reserve@?$basic_string@DU?$char_traits@D@std@@V?$allocator@D@2@@std@@QEAAX_K@Z@QEBA@QEADQEBD0@Z ; `std::basic_string<char,std::char_traits<char>,std::allocator<char> >::reserve'::`2'::<lambda_1>::operator()
PUBLIC	?reserve@?$basic_string@DU?$char_traits@D@std@@V?$allocator@D@2@@std@@QEAAX_K@Z ; std::basic_string<char,std::char_traits<char>,std::allocator<char> >::reserve
PUBLIC	??$_Get_value_from_memory@V?$basic_string_view@DU?$char_traits@D@std@@@std@@@?$basic_format_args@V?$basic_format_context@V?$back_insert_iterator@V?$_Fmt_buffer@D@std@@@std@@D@std@@@std@@CA?A_PQEBE@Z ; std::basic_format_args<std::basic_format_context<std::back_insert_iterator<std::_Fmt_buffer<char> >,char> >::_Get_value_from_memory<std::basic_string_view<char,std::char_traits<char> > >
PUBLIC	?_Estimate_required_capacity@?$basic_format_args@V?$basic_format_context@V?$back_insert_iterator@V?$_Fmt_buffer@D@std@@@std@@D@std@@@std@@QEBA_KXZ ; std::basic_format_args<std::basic_format_context<std::back_insert_iterator<std::_Fmt_buffer<char> >,char> >::_Estimate_required_capacity
PUBLIC	?_Unwrapped@?$_String_view_iterator@U?$char_traits@D@std@@@std@@QEBAPEBDXZ ; std::_String_view_iterator<std::char_traits<char> >::_Unwrapped
PUBLIC	?advance_to@?$basic_format_parse_context@D@std@@QEAAXV?$_String_view_iterator@U?$char_traits@D@std@@@2@@Z ; std::basic_format_parse_context<char>::advance_to
PUBLIC	?next_arg_id@?$basic_format_parse_context@D@std@@QEAA_KXZ ; std::basic_format_parse_context<char>::next_arg_id
PUBLIC	?arg@?$basic_format_context@V?$back_insert_iterator@V?$_Fmt_buffer@D@std@@@std@@D@std@@QEBA?AV?$basic_format_arg@V?$basic_format_context@V?$back_insert_iterator@V?$_Fmt_buffer@D@std@@@std@@D@std@@@2@_K@Z ; std::basic_format_context<std::back_insert_iterator<std::_Fmt_buffer<char> >,char>::arg
PUBLIC	?advance_to@?$basic_format_context@V?$back_insert_iterator@V?$_Fmt_buffer@D@std@@@std@@D@std@@QEAAXV?$back_insert_iterator@V?$_Fmt_buffer@D@std@@@2@@Z ; std::basic_format_context<std::back_insert_iterator<std::_Fmt_buffer<char> >,char>::advance_to
PUBLIC	?_On_localized@?$_Specs_checker@V?$_Dynamic_specs_handler@V?$basic_format_parse_context@D@std@@@std@@@std@@QEAAXXZ ; std::_Specs_checker<std::_Dynamic_specs_handler<std::basic_format_parse_context<char> > >::_On_localized
PUBLIC	?_On_hash@?$_Specs_checker@V?$_Dynamic_specs_handler@V?$basic_format_parse_context@D@std@@@std@@@std@@QEAAXXZ ; std::_Specs_checker<std::_Dynamic_specs_handler<std::basic_format_parse_context<char> > >::_On_hash
PUBLIC	?_On_sign@?$_Specs_checker@V?$_Dynamic_specs_handler@V?$basic_format_parse_context@D@std@@@std@@@std@@QEAAXW4_Fmt_sign@2@@Z ; std::_Specs_checker<std::_Dynamic_specs_handler<std::basic_format_parse_context<char> > >::_On_sign
PUBLIC	?_On_zero@?$_Specs_checker@V?$_Dynamic_specs_handler@V?$basic_format_parse_context@D@std@@@std@@@std@@QEAAXXZ ; std::_Specs_checker<std::_Dynamic_specs_handler<std::basic_format_parse_context<char> > >::_On_zero
PUBLIC	??R?$_Arg_formatter@V?$back_insert_iterator@V?$_Fmt_buffer@D@std@@@std@@D@__p2286@std@@QEAA?AV?$back_insert_iterator@V?$_Fmt_buffer@D@std@@@2@Vhandle@?$basic_format_arg@V?$basic_format_context@V?$back_insert_iterator@V?$_Fmt_buffer@D@std@@@std@@D@std@@@2@@Z ; std::__p2286::_Arg_formatter<std::back_insert_iterator<std::_Fmt_buffer<char> >,char>::operator()
PUBLIC	??0?$back_insert_iterator@V?$basic_string@DU?$char_traits@D@std@@V?$allocator@D@2@@std@@@std@@QEAA@AEAV?$basic_string@DU?$char_traits@D@std@@V?$allocator@D@2@@1@@Z ; std::back_insert_iterator<std::basic_string<char,std::char_traits<char>,std::allocator<char> > >::back_insert_iterator<std::basic_string<char,std::char_traits<char>,std::allocator<char> > >
PUBLIC	??0?$_Fmt_codec@D$0A@@std@@QEAA@XZ		; std::_Fmt_codec<char,0>::_Fmt_codec<char,0>
PUBLIC	??$_Getvals@D@?$numpunct@D@std@@IEAAXDPEBUlconv@@U_Cvtvec@@@Z ; std::numpunct<char>::_Getvals<char>
PUBLIC	??$_Maklocchr@D@std@@YADDPEADAEBU_Cvtvec@@@Z	; std::_Maklocchr<char>
PUBLIC	??$_Parse_format_specs@DAEAV?$_Specs_checker@V?$_Dynamic_specs_handler@V?$basic_format_parse_context@D@std@@@std@@@std@@@std@@YAPEBDPEBD0AEAV?$_Specs_checker@V?$_Dynamic_specs_handler@V?$basic_format_parse_context@D@std@@@std@@@0@@Z ; std::_Parse_format_specs<char,std::_Specs_checker<std::_Dynamic_specs_handler<std::basic_format_parse_context<char> > > &>
PUBLIC	??$exchange@PEAV_Facet_base@std@@$$T@std@@YAPEAV_Facet_base@0@AEAPEAV10@$$QEA$$T@Z ; std::exchange<std::_Facet_base *,std::nullptr_t>
PUBLIC	??$_Store@AEAUnone@yw@@@?$_Format_arg_store@V?$basic_format_context@V?$back_insert_iterator@V?$_Fmt_buffer@D@std@@@std@@D@std@@AEAUnone@yw@@@std@@AEAAX_KAEAUnone@yw@@@Z ; std::_Format_arg_store<std::basic_format_context<std::back_insert_iterator<std::_Fmt_buffer<char> >,char>,yw::none &>::_Store<yw::none &>
PUBLIC	??$construct_at@PEADAEAPEAD$0A@@std@@YAPEAPEADQEAPEADAEAPEAD@Z ; std::construct_at<char *,char * &,0>
PUBLIC	??$forward@AEAPEAD@std@@YAAEAPEADAEAPEAD@Z	; std::forward<char * &>
PUBLIC	??$addressof@PEAD@std@@YAPEAPEADAEAPEAD@Z	; std::addressof<char *>
PUBLIC	??$_Get_unwrapped@AEAPEBI@std@@YA?A_TAEAPEBI@Z	; std::_Get_unwrapped<unsigned int const * &>
PUBLIC	??$upper_bound@PEBIIU?$less@X@std@@@std@@YAPEBIPEBI0AEBIU?$less@X@0@@Z ; std::upper_bound<unsigned int const *,unsigned int,std::less<void> >
PUBLIC	??$forward@V?$allocator@D@std@@@std@@YA$$QEAV?$allocator@D@0@AEAV10@@Z ; std::forward<std::allocator<char> >
PUBLIC	??$_Construct_in_place@PEADAEBQEAD@std@@YAXAEAPEADAEBQEAD@Z ; std::_Construct_in_place<char *,char * const &>
PUBLIC	??$_Allocate_for_capacity@$0A@@?$basic_string@DU?$char_traits@D@std@@V?$allocator@D@2@@std@@CAPEADAEAV?$allocator@D@1@AEA_K@Z ; std::basic_string<char,std::char_traits<char>,std::allocator<char> >::_Allocate_for_capacity<0>
PUBLIC	??$_To_address@PEAD@std@@YA?A_PAEBQEAD@Z	; std::_To_address<char *>
PUBLIC	??$_Get_unwrapped@AEBQEAD@std@@YA?A_TAEBQEAD@Z	; std::_Get_unwrapped<char * const &>
PUBLIC	??$_To_address@PEBD@std@@YA?A_PAEBQEBD@Z	; std::_To_address<char const *>
PUBLIC	??$_Find_unchecked@PEBDD@std@@YAPEBDPEBDQEBDAEBD@Z ; std::_Find_unchecked<char const *,char>
PUBLIC	??$_Insert_string@DU?$char_traits@D@std@@_K@std@@YAAEAV?$basic_ostream@DU?$char_traits@D@std@@@0@AEAV10@QEBD_K@Z ; std::_Insert_string<char,std::char_traits<char>,unsigned __int64>
PUBLIC	??$vformat@$0A@@__p2286@std@@YA?AV?$basic_string@DU?$char_traits@D@std@@V?$allocator@D@2@@1@V?$basic_string_view@DU?$char_traits@D@std@@@1@V?$basic_format_args@V?$basic_format_context@V?$back_insert_iterator@V?$_Fmt_buffer@D@std@@@std@@D@std@@@1@@Z ; std::__p2286::vformat<0>
PUBLIC	??$?0AEAUnone@yw@@@?$basic_format_args@V?$basic_format_context@V?$back_insert_iterator@V?$_Fmt_buffer@D@std@@@std@@D@std@@@std@@QEAA@AEBV?$_Format_arg_store@V?$basic_format_context@V?$back_insert_iterator@V?$_Fmt_buffer@D@std@@@std@@D@std@@AEAUnone@yw@@@1@@Z ; std::basic_format_args<std::basic_format_context<std::back_insert_iterator<std::_Fmt_buffer<char> >,char> >::basic_format_args<std::basic_format_context<std::back_insert_iterator<std::_Fmt_buffer<char> >,char> ><yw::none &>
PUBLIC	??$_Visit@U?$_Arg_formatter@V?$back_insert_iterator@V?$_Fmt_buffer@D@std@@@std@@D@__p2286@std@@@?$basic_format_arg@V?$basic_format_context@V?$back_insert_iterator@V?$_Fmt_buffer@D@std@@@std@@D@std@@@std@@QEAA?A_T$$QEAU?$_Arg_formatter@V?$back_insert_iterator@V?$_Fmt_buffer@D@std@@@std@@D@__p2286@1@@Z ; std::basic_format_arg<std::basic_format_context<std::back_insert_iterator<std::_Fmt_buffer<char> >,char> >::_Visit<std::__p2286::_Arg_formatter<std::back_insert_iterator<std::_Fmt_buffer<char> >,char> >
PUBLIC	??$visit_format_arg@U?$_Arg_formatter@V?$back_insert_iterator@V?$_Fmt_buffer@D@std@@@std@@D@__p2286@std@@V?$basic_format_context@V?$back_insert_iterator@V?$_Fmt_buffer@D@std@@@std@@D@3@@std@@YA?A_T$$QEAU?$_Arg_formatter@V?$back_insert_iterator@V?$_Fmt_buffer@D@std@@@std@@D@__p2286@0@V?$basic_format_arg@V?$basic_format_context@V?$back_insert_iterator@V?$_Fmt_buffer@D@std@@@std@@D@std@@@0@@Z ; std::visit_format_arg<std::__p2286::_Arg_formatter<std::back_insert_iterator<std::_Fmt_buffer<char> >,char>,std::basic_format_context<std::back_insert_iterator<std::_Fmt_buffer<char> >,char> >
PUBLIC	??$format@V?$basic_format_context@V?$back_insert_iterator@V?$_Fmt_buffer@D@std@@@std@@D@std@@@?$_Formatter_base@PEBDD$0L@@__p2286@std@@QEBA?AV?$back_insert_iterator@V?$_Fmt_buffer@D@std@@@2@AEBQEBDAEAV?$basic_format_context@V?$back_insert_iterator@V?$_Fmt_buffer@D@std@@@std@@D@2@@Z ; std::__p2286::_Formatter_base<char const *,char,11>::format<std::basic_format_context<std::back_insert_iterator<std::_Fmt_buffer<char> >,char> >
PUBLIC	??$launder@$$CBV?$_Fmt_codec@D$0A@@std@@@std@@YAPEBV?$_Fmt_codec@D$0A@@0@PEBV10@@Z ; std::launder<std::_Fmt_codec<char,0> const >
PUBLIC	??$call_once@V<lambda_1>@?1???$_Get_fmt_codec@D@std@@YAAEBV?$_Fmt_codec@D$0A@@2@XZ@$$V@std@@YAXAEAUonce_flag@0@$$QEAV<lambda_1>@?1???$_Get_fmt_codec@D@0@YAAEBV?$_Fmt_codec@D$0A@@0@XZ@@Z ; std::call_once<`std::_Get_fmt_codec<char>'::`2'::<lambda_1> >
PUBLIC	??$construct_at@V?$_Fmt_codec@D$0A@@std@@$$V$0A@@std@@YAPEAV?$_Fmt_codec@D$0A@@0@QEAV10@@Z ; std::construct_at<std::_Fmt_codec<char,0>,0>
PUBLIC	??$?0U?$default_delete@V_Facet_base@std@@@std@@$0A@@?$unique_ptr@V_Facet_base@std@@U?$default_delete@V_Facet_base@std@@@2@@std@@QEAA@PEAV_Facet_base@1@@Z ; std::unique_ptr<std::_Facet_base,std::default_delete<std::_Facet_base> >::unique_ptr<std::_Facet_base,std::default_delete<std::_Facet_base> ><std::default_delete<std::_Facet_base>,0>
PUBLIC	??$_Floating_to_chars_hex_precision@N@std@@YA?AUto_chars_result@0@PEADQEADNH@Z ; std::_Floating_to_chars_hex_precision<double>
PUBLIC	??0<lambda_1>@?1???$_Floating_to_chars_general_precision@N@std@@YA?AUto_chars_result@1@PEADQEADNH@Z@QEAA@AEBHAEBQEB_K3AEB_K@Z ; `std::_Floating_to_chars_general_precision<double>'::`2'::<lambda_1>::<lambda_1>
PUBLIC	??0<lambda_1>@?1???R0?1???$_Floating_to_chars_general_precision@N@std@@YA?AUto_chars_result@1@PEADQEADNH@Z@QEBA@XZ@QEAA@AEB_K@Z ; ``std::_Floating_to_chars_general_precision<double>'::`2'::<lambda_1>::operator()'::`2'::<lambda_1>::<lambda_1>
PUBLIC	??R<lambda_1>@?1???R0?1???$_Floating_to_chars_general_precision@N@std@@YA?AUto_chars_result@1@PEADQEADNH@Z@QEBA@XZ@QEBA@_K@Z ; ``std::_Floating_to_chars_general_precision<double>'::`2'::<lambda_1>::operator()'::`2'::<lambda_1>::operator()
PUBLIC	??R<lambda_1>@?1???$_Floating_to_chars_general_precision@N@std@@YA?AUto_chars_result@1@PEADQEADNH@Z@QEBA@XZ ; `std::_Floating_to_chars_general_precision<double>'::`2'::<lambda_1>::operator()
PUBLIC	??$_Floating_to_chars_general_precision@N@std@@YA?AUto_chars_result@0@PEADQEADNH@Z ; std::_Floating_to_chars_general_precision<double>
PUBLIC	??$_Floating_to_chars_fixed_precision@N@std@@YA?AUto_chars_result@0@QEAD0NH@Z ; std::_Floating_to_chars_fixed_precision<double>
PUBLIC	??$_Floating_to_chars_scientific_precision@N@std@@YA?AUto_chars_result@0@QEAD0NH@Z ; std::_Floating_to_chars_scientific_precision<double>
PUBLIC	??$_Floating_to_chars_hex_precision@M@std@@YA?AUto_chars_result@0@PEADQEADMH@Z ; std::_Floating_to_chars_hex_precision<float>
PUBLIC	??0<lambda_1>@?1???$_Floating_to_chars_general_precision@M@std@@YA?AUto_chars_result@1@PEADQEADMH@Z@QEAA@AEBQEBI2AEBI@Z ; `std::_Floating_to_chars_general_precision<float>'::`2'::<lambda_1>::<lambda_1>
PUBLIC	??0<lambda_1>@?1???R0?1???$_Floating_to_chars_general_precision@M@std@@YA?AUto_chars_result@1@PEADQEADMH@Z@QEBA@XZ@QEAA@AEBI@Z ; ``std::_Floating_to_chars_general_precision<float>'::`2'::<lambda_1>::operator()'::`2'::<lambda_1>::<lambda_1>
PUBLIC	??R<lambda_1>@?1???R0?1???$_Floating_to_chars_general_precision@M@std@@YA?AUto_chars_result@1@PEADQEADMH@Z@QEBA@XZ@QEBA@I@Z ; ``std::_Floating_to_chars_general_precision<float>'::`2'::<lambda_1>::operator()'::`2'::<lambda_1>::operator()
PUBLIC	??R<lambda_1>@?1???$_Floating_to_chars_general_precision@M@std@@YA?AUto_chars_result@1@PEADQEADMH@Z@QEBA@XZ ; `std::_Floating_to_chars_general_precision<float>'::`2'::<lambda_1>::operator()
PUBLIC	??$_Floating_to_chars_general_precision@M@std@@YA?AUto_chars_result@0@PEADQEADMH@Z ; std::_Floating_to_chars_general_precision<float>
PUBLIC	??$_Floating_to_chars_fixed_precision@M@std@@YA?AUto_chars_result@0@QEAD0MH@Z ; std::_Floating_to_chars_fixed_precision<float>
PUBLIC	??$_Floating_to_chars_scientific_precision@M@std@@YA?AUto_chars_result@0@QEAD0MH@Z ; std::_Floating_to_chars_scientific_precision<float>
PUBLIC	??$_Floating_to_chars_hex_shortest@N@std@@YA?AUto_chars_result@0@PEADQEADN@Z ; std::_Floating_to_chars_hex_shortest<double>
PUBLIC	??$_Floating_to_chars_hex_shortest@M@std@@YA?AUto_chars_result@0@PEADQEADM@Z ; std::_Floating_to_chars_hex_shortest<float>
PUBLIC	??$_Floating_to_chars_ryu@N@std@@YA?AUto_chars_result@0@QEAD0NW4chars_format@0@@Z ; std::_Floating_to_chars_ryu<double>
PUBLIC	??$_Bit_cast@N_K$0A@@std@@YANAEB_K@Z		; std::_Bit_cast<double,unsigned __int64,0>
PUBLIC	??$_Bit_cast@_KN$0A@@std@@YA_KAEBN@Z		; std::_Bit_cast<unsigned __int64,double,0>
PUBLIC	??$_Floating_to_chars_ryu@M@std@@YA?AUto_chars_result@0@QEAD0MW4chars_format@0@@Z ; std::_Floating_to_chars_ryu<float>
PUBLIC	??$_Bit_cast@MI$0A@@std@@YAMAEBI@Z		; std::_Bit_cast<float,unsigned int,0>
PUBLIC	??$_Bit_cast@IM$0A@@std@@YAIAEBM@Z		; std::_Bit_cast<unsigned int,float,0>
PUBLIC	??$_Copy_n_unchecked4@PEAD_JPEAD@std@@YAPEADPEAD_J0@Z ; std::_Copy_n_unchecked4<char *,__int64,char *>
PUBLIC	??$fill_n@PEADHD@std@@YAPEADPEADHAEBD@Z		; std::fill_n<char *,int,char>
PUBLIC	??$_Get_unwrapped_n@AEAPEADH@std@@YA?A_TAEAPEADH@Z ; std::_Get_unwrapped_n<char * &,int>
PUBLIC	??$forward@AEBD@std@@YAAEBDAEBD@Z		; std::forward<char const &>
PUBLIC	??$_Maklocstr@D@std@@YAPEADPEBDPEADAEBU_Cvtvec@@@Z ; std::_Maklocstr<char>
PUBLIC	??1?$_Tidy_guard@V?$numpunct@D@std@@@std@@QEAA@XZ ; std::_Tidy_guard<std::numpunct<char> >::~_Tidy_guard<std::numpunct<char> >
PUBLIC	?_Init@?$numpunct@D@std@@IEAAXAEBV_Locinfo@2@_N@Z ; std::numpunct<char>::_Init
PUBLIC	??0?$_Specs_setter@D@std@@QEAA@AEAU?$_Basic_format_specs@D@1@@Z ; std::_Specs_setter<char>::_Specs_setter<char>
PUBLIC	?max_size@?$_Default_allocator_traits@V?$allocator@D@std@@@std@@SA_KAEBV?$allocator@D@2@@Z ; std::_Default_allocator_traits<std::allocator<char> >::max_size
PUBLIC	??0_Bxty@?$_String_val@U?$_Simple_types@D@std@@@std@@QEAA@XZ ; std::_String_val<std::_Simple_types<char> >::_Bxty::_Bxty
PUBLIC	?_Calculate_growth@?$basic_string@DU?$char_traits@D@std@@V?$allocator@D@2@@std@@CA_K_K00@Z ; std::basic_string<char,std::char_traits<char>,std::allocator<char> >::_Calculate_growth
PUBLIC	??0?$numpunct@D@std@@QEAA@AEBV_Locinfo@1@_K_N@Z	; std::numpunct<char>::numpunct<char>
PUBLIC	?begin@?$basic_format_parse_context@D@std@@QEBA?AV?$_String_view_iterator@U?$char_traits@D@std@@@2@XZ ; std::basic_format_parse_context<char>::begin
PUBLIC	?_Unchecked_begin@?$basic_format_parse_context@D@std@@QEBAPEBDXZ ; std::basic_format_parse_context<char>::_Unchecked_begin
PUBLIC	?_Unchecked_end@?$basic_format_parse_context@D@std@@QEBAPEBDXZ ; std::basic_format_parse_context<char>::_Unchecked_end
PUBLIC	??R?$default_delete@V_Facet_base@std@@@std@@QEBAXPEAV_Facet_base@1@@Z ; std::default_delete<std::_Facet_base>::operator()
PUBLIC	?_Get_first@?$_Compressed_pair@U?$default_delete@V_Facet_base@std@@@std@@PEAV_Facet_base@2@$00@std@@QEAAAEAU?$default_delete@V_Facet_base@std@@@2@XZ ; std::_Compressed_pair<std::default_delete<std::_Facet_base>,std::_Facet_base *,1>::_Get_first
PUBLIC	??0?$_Dynamic_specs_handler@V?$basic_format_parse_context@D@std@@@std@@QEAA@AEAU?$_Dynamic_format_specs@D@1@AEAV?$basic_format_parse_context@D@1@@Z ; std::_Dynamic_specs_handler<std::basic_format_parse_context<char> >::_Dynamic_specs_handler<std::basic_format_parse_context<char> >
PUBLIC	??0?$_Specs_checker@V?$_Dynamic_specs_handler@V?$basic_format_parse_context@D@std@@@std@@@std@@QEAA@AEBV?$_Dynamic_specs_handler@V?$basic_format_parse_context@D@std@@@1@W4_Basic_format_arg_type@1@@Z ; std::_Specs_checker<std::_Dynamic_specs_handler<std::basic_format_parse_context<char> > >::_Specs_checker<std::_Dynamic_specs_handler<std::basic_format_parse_context<char> > >
PUBLIC	?__autoclassinit2@?$numpunct@D@std@@QEAAX_K@Z	; std::numpunct<char>::__autoclassinit2
PUBLIC	??_H@YAXPEAX_K1P6APEAX0@Z@Z			; `vector constructor iterator'
PUBLIC	??0?$allocator@D@std@@QEAA@XZ			; std::allocator<char>::allocator<char>
PUBLIC	??0?$_String_val@U?$_Simple_types@D@std@@@std@@QEAA@XZ ; std::_String_val<std::_Simple_types<char> >::_String_val<std::_Simple_types<char> >
PUBLIC	?data@?$basic_string@DU?$char_traits@D@std@@V?$allocator@D@2@@std@@QEBAPEBDXZ ; std::basic_string<char,std::char_traits<char>,std::allocator<char> >::data
PUBLIC	?max_size@?$basic_string@DU?$char_traits@D@std@@V?$allocator@D@2@@std@@QEBA_KXZ ; std::basic_string<char,std::char_traits<char>,std::allocator<char> >::max_size
PUBLIC	?_Calculate_growth@?$basic_string@DU?$char_traits@D@std@@V?$allocator@D@2@@std@@AEBA_K_K@Z ; std::basic_string<char,std::char_traits<char>,std::allocator<char> >::_Calculate_growth
PUBLIC	?decimal_point@?$numpunct@D@std@@QEBADXZ	; std::numpunct<char>::decimal_point
PUBLIC	?_Getcat@?$numpunct@D@std@@SA_KPEAPEBVfacet@locale@2@PEBV42@@Z ; std::numpunct<char>::_Getcat
PUBLIC	?_Find_encoded@?$_Fmt_codec@D$0A@@std@@QEBAPEBDPEBDQEBDD@Z ; std::_Fmt_codec<char,0>::_Find_encoded
PUBLIC	?parse@?$_Formatter_base@PEBDD$0L@@__p2286@std@@QEAA?AV?$_String_view_iterator@U?$char_traits@D@std@@@3@AEAV?$basic_format_parse_context@D@3@@Z ; std::__p2286::_Formatter_base<char const *,char,11>::parse
PUBLIC	?get@?$basic_format_string@DUnone@yw@@@std@@QEBA?AV?$basic_string_view@DU?$char_traits@D@std@@@2@XZ ; std::basic_format_string<char,yw::none>::get
PUBLIC	??1?$unique_ptr@V_Facet_base@std@@U?$default_delete@V_Facet_base@std@@@2@@std@@QEAA@XZ ; std::unique_ptr<std::_Facet_base,std::default_delete<std::_Facet_base> >::~unique_ptr<std::_Facet_base,std::default_delete<std::_Facet_base> >
PUBLIC	?release@?$unique_ptr@V_Facet_base@std@@U?$default_delete@V_Facet_base@std@@@2@@std@@QEAAPEAV_Facet_base@2@XZ ; std::unique_ptr<std::_Facet_base,std::default_delete<std::_Facet_base> >::release
PUBLIC	??0?$_Format_arg_store@V?$basic_format_context@V?$back_insert_iterator@V?$_Fmt_buffer@D@std@@@std@@D@std@@AEAUnone@yw@@@std@@QEAA@AEAUnone@yw@@@Z ; std::_Format_arg_store<std::basic_format_context<std::back_insert_iterator<std::_Fmt_buffer<char> >,char>,yw::none &>::_Format_arg_store<std::basic_format_context<std::back_insert_iterator<std::_Fmt_buffer<char> >,char>,yw::none &>
PUBLIC	?__autoclassinit2@?$unique_ptr@V_Facet_base@std@@U?$default_delete@V_Facet_base@std@@@2@@std@@QEAAX_K@Z ; std::unique_ptr<std::_Facet_base,std::default_delete<std::_Facet_base> >::__autoclassinit2
PUBLIC	??$_Deallocate@$0BA@$0A@@std@@YAXPEAX_K@Z	; std::_Deallocate<16,0>
PUBLIC	??$construct_at@DAEBD$0A@@std@@YAPEADQEADAEBD@Z	; std::construct_at<char,char const &,0>
PUBLIC	??$addressof@D@std@@YAPEADAEAD@Z		; std::addressof<char>
PUBLIC	??$_Pocma@V?$allocator@D@std@@@std@@YAXAEAV?$allocator@D@0@0@Z ; std::_Pocma<std::allocator<char> >
PUBLIC	??$addressof@V?$basic_string@DU?$char_traits@D@std@@V?$allocator@D@2@@std@@@std@@YAPEAV?$basic_string@DU?$char_traits@D@std@@V?$allocator@D@2@@0@AEAV10@@Z ; std::addressof<std::basic_string<char,std::char_traits<char>,std::allocator<char> > >
PUBLIC	??$addressof@$$CBV?$_String_val@U?$_Simple_types@D@std@@@std@@@std@@YAPEBV?$_String_val@U?$_Simple_types@D@std@@@0@AEBV10@@Z ; std::addressof<std::_String_val<std::_Simple_types<char> > const >
PUBLIC	??$addressof@V?$_String_val@U?$_Simple_types@D@std@@@std@@@std@@YAPEAV?$_String_val@U?$_Simple_types@D@std@@@0@AEAV10@@Z ; std::addressof<std::_String_val<std::_Simple_types<char> > >
PUBLIC	??$_Refancy@PEAD$0A@@std@@YAPEADPEAD@Z		; std::_Refancy<char *,0>
PUBLIC	??$_Construct_in_place@PEADAEAPEAD@std@@YAXAEAPEAD0@Z ; std::_Construct_in_place<char *,char * &>
PUBLIC	??$_Destroy_in_place@PEAD@std@@YAXAEAPEAD@Z	; std::_Destroy_in_place<char *>
PUBLIC	??$end@$$CBI$0CMH@@std@@YAPEBIAEAY0CMH@$$CBI@Z	; std::end<unsigned int const ,711>
PUBLIC	??$upper_bound@PEBII@std@@YAPEBIPEBI0AEBI@Z	; std::upper_bound<unsigned int const *,unsigned int>
PUBLIC	??$end@$$CBI$0BGL@@std@@YAPEBIAEAY0BGL@$$CBI@Z	; std::end<unsigned int const ,363>
PUBLIC	??$_Construct@$00PEBD@?$basic_string@DU?$char_traits@D@std@@V?$allocator@D@2@@std@@AEAAXQEBD_K@Z ; std::basic_string<char,std::char_traits<char>,std::allocator<char> >::_Construct<1,char const *>
PUBLIC	??$?0$$V@?$_Compressed_pair@V?$allocator@D@std@@V?$_String_val@U?$_Simple_types@D@std@@@2@$00@std@@QEAA@U_Zero_then_variadic_args_t@1@@Z ; std::_Compressed_pair<std::allocator<char>,std::_String_val<std::_Simple_types<char> >,1>::_Compressed_pair<std::allocator<char>,std::_String_val<std::_Simple_types<char> >,1><>
PUBLIC	??$?0V?$allocator@D@std@@$$V@?$_Compressed_pair@V?$allocator@D@std@@V?$_String_val@U?$_Simple_types@D@std@@@2@$00@std@@QEAA@U_One_then_variadic_args_t@1@$$QEAV?$allocator@D@1@@Z ; std::_Compressed_pair<std::allocator<char>,std::_String_val<std::_Simple_types<char> >,1>::_Compressed_pair<std::allocator<char>,std::_String_val<std::_Simple_types<char> >,1><std::allocator<char> >
PUBLIC	??$move@AEAV?$allocator@D@std@@@std@@YA$$QEAV?$allocator@D@0@AEAV10@@Z ; std::move<std::allocator<char> &>
PUBLIC	??$_Convert_size@_K_K@std@@YA_K_K@Z		; std::_Convert_size<unsigned __int64,unsigned __int64>
PUBLIC	??$min@_K@std@@YAAEB_KAEB_K0@Z			; std::min<unsigned __int64>
PUBLIC	??$use_facet@V?$numpunct@D@std@@@std@@YAAEBV?$numpunct@D@0@AEBVlocale@0@@Z ; std::use_facet<std::numpunct<char> >
PUBLIC	??$isfinite@N@@YA_NN@Z				; isfinite<double>
PUBLIC	??$isfinite@O@@YA_NO@Z				; isfinite<long double>
PUBLIC	??$_Unfancy@D@std@@YAPEADPEAD@Z			; std::_Unfancy<char>
PUBLIC	??$_Get_unwrapped@AEAPEAD@std@@YA?A_TAEAPEAD@Z	; std::_Get_unwrapped<char * &>
PUBLIC	??$?0AEAUvalue@yw@@@value@yw@@QEAA@AEAU01@@Z	; yw::value::value<yw::value &>
PUBLIC	??$?6DU?$char_traits@D@std@@V?$allocator@D@1@@std@@YAAEAV?$basic_ostream@DU?$char_traits@D@std@@@0@AEAV10@AEBV?$basic_string@DU?$char_traits@D@std@@V?$allocator@D@2@@0@@Z ; std::operator<<<char,std::char_traits<char>,std::allocator<char> >
PUBLIC	??$make_format_args@V?$basic_format_context@V?$back_insert_iterator@V?$_Fmt_buffer@D@std@@@std@@D@std@@AEAUnone@yw@@@std@@YA?A_PAEAUnone@yw@@@Z ; std::make_format_args<std::basic_format_context<std::back_insert_iterator<std::_Fmt_buffer<char> >,char>,yw::none &>
PUBLIC	??$format@V?$basic_format_context@V?$back_insert_iterator@V?$_Fmt_buffer@D@std@@@std@@D@std@@@?$formatter@Unone@yw@@D@std@@QEBA?A_PUnone@yw@@AEAV?$basic_format_context@V?$back_insert_iterator@V?$_Fmt_buffer@D@std@@@std@@D@1@@Z ; std::formatter<yw::none,char>::format<std::basic_format_context<std::back_insert_iterator<std::_Fmt_buffer<char> >,char> >
PUBLIC	??0?$formatter@PEBDD@std@@QEAA@XZ		; std::formatter<char const *,char>::formatter<char const *,char>
PUBLIC	??0?$formatter@Unone@yw@@D@std@@QEAA@XZ		; std::formatter<yw::none,char>::formatter<yw::none,char>
PUBLIC	??0?$_Basic_format_specs@D@std@@QEAA@XZ		; std::_Basic_format_specs<char>::_Basic_format_specs<char>
PUBLIC	??0?$_Dynamic_format_specs@D@std@@QEAA@XZ	; std::_Dynamic_format_specs<char>::_Dynamic_format_specs<char>
PUBLIC	??0?$_Formatter_base@PEBDD$0L@@__p2286@std@@QEAA@XZ ; std::__p2286::_Formatter_base<char const *,char,11>::_Formatter_base<char const *,char,11>
PUBLIC	??$format@Unone@yw@@@__p2286@std@@YA?AV?$basic_string@DU?$char_traits@D@std@@V?$allocator@D@2@@1@U?$basic_format_string@DUnone@yw@@@1@$$QEAUnone@yw@@@Z ; std::__p2286::format<yw::none>
PUBLIC	??$endl@DU?$char_traits@D@std@@@std@@YAAEAV?$basic_ostream@DU?$char_traits@D@std@@@0@AEAV10@@Z ; std::endl<char,std::char_traits<char> >
PUBLIC	??$?6U?$char_traits@D@std@@@std@@YAAEAV?$basic_ostream@DU?$char_traits@D@std@@@0@AEAV10@Unone@yw@@@Z ; std::operator<<<std::char_traits<char> >
PUBLIC	??$?6U?$char_traits@D@std@@@std@@YAAEAV?$basic_ostream@DU?$char_traits@D@std@@@0@AEAV10@PEBD@Z ; std::operator<<<std::char_traits<char> >
PUBLIC	??R<lambda_1>@?1???$_Get_fmt_codec@D@std@@YAAEBV?$_Fmt_codec@D$0A@@1@XZ@QEBA@XZ ; `std::_Get_fmt_codec<char>'::`2'::<lambda_1>::operator()
PUBLIC	??$_Get_fmt_codec@D@std@@YAAEBV?$_Fmt_codec@D$0A@@0@XZ ; std::_Get_fmt_codec<char>
PUBLIC	??$_Floating_to_chars@$01N@std@@YA?AUto_chars_result@0@PEADQEADNW4chars_format@0@H@Z ; std::_Floating_to_chars<2,double>
PUBLIC	??$_Floating_to_chars@$01M@std@@YA?AUto_chars_result@0@PEADQEADMW4chars_format@0@H@Z ; std::_Floating_to_chars<2,float>
PUBLIC	??$_Floating_to_chars@$00N@std@@YA?AUto_chars_result@0@PEADQEADNW4chars_format@0@H@Z ; std::_Floating_to_chars<1,double>
PUBLIC	??$_Floating_to_chars@$00M@std@@YA?AUto_chars_result@0@PEADQEADMW4chars_format@0@H@Z ; std::_Floating_to_chars<1,float>
PUBLIC	??$_Floating_to_chars@$0A@N@std@@YA?AUto_chars_result@0@PEADQEADNW4chars_format@0@H@Z ; std::_Floating_to_chars<0,double>
PUBLIC	??$_Floating_to_chars@$0A@M@std@@YA?AUto_chars_result@0@PEADQEADMW4chars_format@0@H@Z ; std::_Floating_to_chars<0,float>
PUBLIC	??$_Integer_to_chars@_K@std@@YA?AUto_chars_result@0@PEADQEAD_KH@Z ; std::_Integer_to_chars<unsigned __int64>
PUBLIC	??$_Integer_to_chars@_J@std@@YA?AUto_chars_result@0@PEADQEAD_JH@Z ; std::_Integer_to_chars<__int64>
PUBLIC	??$_Integer_to_chars@I@std@@YA?AUto_chars_result@0@PEADQEADIH@Z ; std::_Integer_to_chars<unsigned int>
PUBLIC	??$_Integer_to_chars@H@std@@YA?AUto_chars_result@0@PEADQEADHH@Z ; std::_Integer_to_chars<int>
PUBLIC	??$_Integer_to_chars@E@std@@YA?AUto_chars_result@0@PEADQEADEH@Z ; std::_Integer_to_chars<unsigned char>
PUBLIC	??$_Integer_to_chars@D@std@@YA?AUto_chars_result@0@PEADQEADDH@Z ; std::_Integer_to_chars<char>
PUBLIC	??$_Adl_verify_range@PEADPEAD@std@@YAXAEBQEAD0@Z ; std::_Adl_verify_range<char *,char *>
PUBLIC	??$__append_c_digits@D@std@@YAXIIQEAD@Z		; std::__append_c_digits<char>
PUBLIC	??$__append_nine_digits@D@std@@YAXIQEAD@Z	; std::__append_nine_digits<char>
PUBLIC	?_Xran@?$_String_val@U?$_Simple_types@D@std@@@std@@SAXXZ ; std::_String_val<std::_Simple_types<char> >::_Xran
PUBLIC	??Y?$_String_const_iterator@V?$_String_val@U?$_Simple_types@D@std@@@std@@@std@@QEAAAEAV01@_J@Z ; std::_String_const_iterator<std::_String_val<std::_Simple_types<char> > >::operator+=
PUBLIC	?deallocate@?$allocator@D@std@@QEAAXQEAD_K@Z	; std::allocator<char>::deallocate
PUBLIC	?_Check_offset@?$_String_val@U?$_Simple_types@D@std@@@std@@QEBAX_K@Z ; std::_String_val<std::_Simple_types<char> >::_Check_offset
PUBLIC	??$max@_K@std@@YAAEB_KAEB_K0@Z			; std::max<unsigned __int64>
PUBLIC	??0?$_String_const_iterator@V?$_String_val@U?$_Simple_types@D@std@@@std@@@std@@QEAA@PEBDPEBU_Container_base0@1@@Z ; std::_String_const_iterator<std::_String_val<std::_Simple_types<char> > >::_String_const_iterator<std::_String_val<std::_Simple_types<char> > >
PUBLIC	??Y?$_String_iterator@V?$_String_val@U?$_Simple_types@D@std@@@std@@@std@@QEAAAEAV01@_J@Z ; std::_String_iterator<std::_String_val<std::_Simple_types<char> > >::operator+=
PUBLIC	?move@?$_Char_traits@DH@std@@SAPEADQEADQEBD_K@Z	; std::_Char_traits<char,int>::move
PUBLIC	?assign@?$_Char_traits@DH@std@@SAXAEADAEBD@Z	; std::_Char_traits<char,int>::assign
PUBLIC	?_Activate_SSO_buffer@?$_String_val@U?$_Simple_types@D@std@@@std@@QEAAXXZ ; std::_String_val<std::_Simple_types<char> >::_Activate_SSO_buffer
PUBLIC	?_Deallocate_for_capacity@?$basic_string@DU?$char_traits@D@std@@V?$allocator@D@2@@std@@CAXAEAV?$allocator@D@2@QEAD_K@Z ; std::basic_string<char,std::char_traits<char>,std::allocator<char> >::_Deallocate_for_capacity
PUBLIC	??4?$basic_string@DU?$char_traits@D@std@@V?$allocator@D@2@@std@@QEAAAEAV01@$$QEAV01@@Z ; std::basic_string<char,std::char_traits<char>,std::allocator<char> >::operator=
PUBLIC	?_Memcpy_val_from@?$basic_string@DU?$char_traits@D@std@@V?$allocator@D@2@@std@@AEAAXAEBV12@@Z ; std::basic_string<char,std::char_traits<char>,std::allocator<char> >::_Memcpy_val_from
PUBLIC	?begin@?$basic_string@DU?$char_traits@D@std@@V?$allocator@D@2@@std@@QEAA?AV?$_String_iterator@V?$_String_val@U?$_Simple_types@D@std@@@std@@@2@XZ ; std::basic_string<char,std::char_traits<char>,std::allocator<char> >::begin
PUBLIC	??0?$_String_iterator@V?$_String_val@U?$_Simple_types@D@std@@@std@@@std@@QEAA@PEBDPEBU_Container_base0@1@@Z ; std::_String_iterator<std::_String_val<std::_Simple_types<char> > >::_String_iterator<std::_String_val<std::_Simple_types<char> > >
PUBLIC	?end@?$basic_string@DU?$char_traits@D@std@@V?$allocator@D@2@@std@@QEAA?AV?$_String_iterator@V?$_String_val@U?$_Simple_types@D@std@@@std@@@2@XZ ; std::basic_string<char,std::char_traits<char>,std::allocator<char> >::end
PUBLIC	?_Swap_proxy_and_iterators@?$basic_string@DU?$char_traits@D@std@@V?$allocator@D@2@@std@@AEAAXAEAV12@@Z ; std::basic_string<char,std::char_traits<char>,std::allocator<char> >::_Swap_proxy_and_iterators
PUBLIC	?_Get_first@?$_Compressed_pair@V?$allocator@D@std@@V?$_String_val@U?$_Simple_types@D@std@@@2@$00@std@@QEAAAEAV?$allocator@D@2@XZ ; std::_Compressed_pair<std::allocator<char>,std::_String_val<std::_Simple_types<char> >,1>::_Get_first
PUBLIC	?_Get_first@?$_Compressed_pair@V?$allocator@D@std@@V?$_String_val@U?$_Simple_types@D@std@@@2@$00@std@@QEBAAEBV?$allocator@D@2@XZ ; std::_Compressed_pair<std::allocator<char>,std::_String_val<std::_Simple_types<char> >,1>::_Get_first
PUBLIC	?thousands_sep@?$numpunct@D@std@@QEBADXZ	; std::numpunct<char>::thousands_sep
PUBLIC	?grouping@?$numpunct@D@std@@QEBA?AV?$basic_string@DU?$char_traits@D@std@@V?$allocator@D@2@@2@XZ ; std::numpunct<char>::grouping
PUBLIC	??0_Sentry_base@?$basic_ostream@DU?$char_traits@D@std@@@std@@QEAA@AEAV12@@Z ; std::basic_ostream<char,std::char_traits<char> >::_Sentry_base::_Sentry_base
PUBLIC	??1_Sentry_base@?$basic_ostream@DU?$char_traits@D@std@@@std@@QEAA@XZ ; std::basic_ostream<char,std::char_traits<char> >::_Sentry_base::~_Sentry_base
PUBLIC	??H?$_String_iterator@V?$_String_val@U?$_Simple_types@D@std@@@std@@@std@@QEBA?AV01@_J@Z ; std::_String_iterator<std::_String_val<std::_Simple_types<char> > >::operator+
PUBLIC	?__autoclassinit2@?$_String_iterator@V?$_String_val@U?$_Simple_types@D@std@@@std@@@std@@QEAAX_K@Z ; std::_String_iterator<std::_String_val<std::_Simple_types<char> > >::__autoclassinit2
PUBLIC	?copy@?$_Char_traits@DH@std@@SAPEADQEADQEBD_K@Z	; std::_Char_traits<char,int>::copy
PUBLIC	?assign@?$_Narrow_char_traits@DH@std@@SAXAEADAEBD@Z ; std::_Narrow_char_traits<char,int>::assign
PUBLIC	?eq_int_type@?$_Narrow_char_traits@DH@std@@SA_NHH@Z ; std::_Narrow_char_traits<char,int>::eq_int_type
PUBLIC	?eof@?$_Narrow_char_traits@DH@std@@SAHXZ	; std::_Narrow_char_traits<char,int>::eof
PUBLIC	?_Myptr@?$_String_val@U?$_Simple_types@D@std@@@std@@QEBAPEBDXZ ; std::_String_val<std::_Simple_types<char> >::_Myptr
PUBLIC	??1_Bxty@?$_String_val@U?$_Simple_types@D@std@@@std@@QEAA@XZ ; std::_String_val<std::_Simple_types<char> >::_Bxty::~_Bxty
PUBLIC	?_Take_contents@?$basic_string@DU?$char_traits@D@std@@V?$allocator@D@2@@std@@AEAAXAEAV12@@Z ; std::basic_string<char,std::char_traits<char>,std::allocator<char> >::_Take_contents
PUBLIC	?_Tidy_init@?$basic_string@DU?$char_traits@D@std@@V?$allocator@D@2@@std@@AEAAXXZ ; std::basic_string<char,std::char_traits<char>,std::allocator<char> >::_Tidy_init
PUBLIC	?_Tidy_deallocate@?$basic_string@DU?$char_traits@D@std@@V?$allocator@D@2@@std@@AEAAXXZ ; std::basic_string<char,std::char_traits<char>,std::allocator<char> >::_Tidy_deallocate
PUBLIC	?_Getal@?$basic_string@DU?$char_traits@D@std@@V?$allocator@D@2@@std@@AEAAAEAV?$allocator@D@2@XZ ; std::basic_string<char,std::char_traits<char>,std::allocator<char> >::_Getal
PUBLIC	?_Getal@?$basic_string@DU?$char_traits@D@std@@V?$allocator@D@2@@std@@AEBAAEBV?$allocator@D@2@XZ ; std::basic_string<char,std::char_traits<char>,std::allocator<char> >::_Getal
PUBLIC	?falsename@?$numpunct@D@std@@QEBA?AV?$basic_string@DU?$char_traits@D@std@@V?$allocator@D@2@@2@XZ ; std::numpunct<char>::falsename
PUBLIC	?truename@?$numpunct@D@std@@QEBA?AV?$basic_string@DU?$char_traits@D@std@@V?$allocator@D@2@@2@XZ ; std::numpunct<char>::truename
PUBLIC	?_Tidy@?$numpunct@D@std@@AEAAXXZ		; std::numpunct<char>::_Tidy
PUBLIC	?_Size@?$_Fmt_buffer@D@std@@QEBA_KXZ		; std::_Fmt_buffer<char>::_Size
PUBLIC	?_Clear@?$_Fmt_buffer@D@std@@QEAAXXZ		; std::_Fmt_buffer<char>::_Clear
PUBLIC	??0?$_String_view_iterator@U?$char_traits@D@std@@@std@@AEAA@QEBD@Z ; std::_String_view_iterator<std::char_traits<char> >::_String_view_iterator<std::char_traits<char> >
PUBLIC	??Y?$_String_view_iterator@U?$char_traits@D@std@@@std@@QEAAAEAV01@_J@Z ; std::_String_view_iterator<std::char_traits<char> >::operator+=
PUBLIC	?_Utf8_code_units_in_next_character@?$_Fmt_codec@D$0A@@std@@CAHQEBD0@Z ; std::_Fmt_codec<char,0>::_Utf8_code_units_in_next_character
PUBLIC	??0sentry@?$basic_ostream@DU?$char_traits@D@std@@@std@@QEAA@AEAV12@@Z ; std::basic_ostream<char,std::char_traits<char> >::sentry::sentry
PUBLIC	??1sentry@?$basic_ostream@DU?$char_traits@D@std@@@std@@QEAA@XZ ; std::basic_ostream<char,std::char_traits<char> >::sentry::~sentry
PUBLIC	??Bsentry@?$basic_ostream@DU?$char_traits@D@std@@@std@@QEBA_NXZ ; std::basic_ostream<char,std::char_traits<char> >::sentry::operator bool
PUBLIC	??0?$basic_format_parse_context@D@std@@QEAA@V?$basic_string_view@DU?$char_traits@D@std@@@1@_K@Z ; std::basic_format_parse_context<char>::basic_format_parse_context<char>
PUBLIC	??_G?$numpunct@D@std@@MEAAPEAXI@Z		; std::numpunct<char>::`scalar deleting destructor'
PUBLIC	?_Get_property_for_codepoint@?$_Unicode_property_data@W4__printable_property_values@std@@$0CMH@$00@std@@QEBA?AW4__printable_property_values@2@I@Z ; std::_Unicode_property_data<enum std::__printable_property_values,711,1>::_Get_property_for_codepoint
PUBLIC	?_Get_property_for_codepoint@?$_Unicode_property_data@W4_Grapheme_Extend_property_values@std@@$0BGL@$00@std@@QEBA?AW4_Grapheme_Extend_property_values@2@I@Z ; std::_Unicode_property_data<enum std::_Grapheme_Extend_property_values,363,1>::_Get_property_for_codepoint
PUBLIC	??0?$basic_string_view@DU?$char_traits@D@std@@@std@@QEAA@QEBD_K@Z ; std::basic_string_view<char,std::char_traits<char> >::basic_string_view<char,std::char_traits<char> >
PUBLIC	?begin@?$basic_string_view@DU?$char_traits@D@std@@@std@@QEBA?AV?$_String_view_iterator@U?$char_traits@D@std@@@2@XZ ; std::basic_string_view<char,std::char_traits<char> >::begin
PUBLIC	?end@?$basic_string_view@DU?$char_traits@D@std@@@std@@QEBA?AV?$_String_view_iterator@U?$char_traits@D@std@@@2@XZ ; std::basic_string_view<char,std::char_traits<char> >::end
PUBLIC	?_Unchecked_begin@?$basic_string_view@DU?$char_traits@D@std@@@std@@QEBAPEBDXZ ; std::basic_string_view<char,std::char_traits<char> >::_Unchecked_begin
PUBLIC	?_Unchecked_end@?$basic_string_view@DU?$char_traits@D@std@@@std@@QEBAPEBDXZ ; std::basic_string_view<char,std::char_traits<char> >::_Unchecked_end
PUBLIC	?size@?$basic_string_view@DU?$char_traits@D@std@@@std@@QEBA_KXZ ; std::basic_string_view<char,std::char_traits<char> >::size
PUBLIC	?empty@?$basic_string_view@DU?$char_traits@D@std@@@std@@QEBA_NXZ ; std::basic_string_view<char,std::char_traits<char> >::empty
PUBLIC	?data@?$basic_string_view@DU?$char_traits@D@std@@@std@@QEBAPEBDXZ ; std::basic_string_view<char,std::char_traits<char> >::data
PUBLIC	??0?$basic_string@DU?$char_traits@D@std@@V?$allocator@D@2@@std@@QEAA@XZ ; std::basic_string<char,std::char_traits<char>,std::allocator<char> >::basic_string<char,std::char_traits<char>,std::allocator<char> >
PUBLIC	??0?$basic_string@DU?$char_traits@D@std@@V?$allocator@D@2@@std@@QEAA@QEBD@Z ; std::basic_string<char,std::char_traits<char>,std::allocator<char> >::basic_string<char,std::char_traits<char>,std::allocator<char> >
PUBLIC	??0?$basic_string@DU?$char_traits@D@std@@V?$allocator@D@2@@std@@QEAA@$$QEAV01@@Z ; std::basic_string<char,std::char_traits<char>,std::allocator<char> >::basic_string<char,std::char_traits<char>,std::allocator<char> >
PUBLIC	??1?$_String_val@U?$_Simple_types@D@std@@@std@@QEAA@XZ ; std::_String_val<std::_Simple_types<char> >::~_String_val<std::_Simple_types<char> >
PUBLIC	??1?$_Compressed_pair@V?$allocator@D@std@@V?$_String_val@U?$_Simple_types@D@std@@@2@$00@std@@QEAA@XZ ; std::_Compressed_pair<std::allocator<char>,std::_String_val<std::_Simple_types<char> >,1>::~_Compressed_pair<std::allocator<char>,std::_String_val<std::_Simple_types<char> >,1>
PUBLIC	??1?$basic_string@DU?$char_traits@D@std@@V?$allocator@D@2@@std@@QEAA@XZ ; std::basic_string<char,std::char_traits<char>,std::allocator<char> >::~basic_string<char,std::char_traits<char>,std::allocator<char> >
PUBLIC	??B?$basic_string@DU?$char_traits@D@std@@V?$allocator@D@2@@std@@QEBA?AV?$basic_string_view@DU?$char_traits@D@std@@@1@XZ ; std::basic_string<char,std::char_traits<char>,std::allocator<char> >::operator std::basic_string_view<char,std::char_traits<char> >
PUBLIC	?data@?$basic_string@DU?$char_traits@D@std@@V?$allocator@D@2@@std@@QEAAPEADXZ ; std::basic_string<char,std::char_traits<char>,std::allocator<char> >::data
PUBLIC	?size@?$basic_string@DU?$char_traits@D@std@@V?$allocator@D@2@@std@@QEBA_KXZ ; std::basic_string<char,std::char_traits<char>,std::allocator<char> >::size
PUBLIC	??1?$numpunct@D@std@@MEAA@XZ			; std::numpunct<char>::~numpunct<char>
PUBLIC	?do_decimal_point@?$numpunct@D@std@@MEBADXZ	; std::numpunct<char>::do_decimal_point
PUBLIC	?do_thousands_sep@?$numpunct@D@std@@MEBADXZ	; std::numpunct<char>::do_thousands_sep
PUBLIC	?do_grouping@?$numpunct@D@std@@MEBA?AV?$basic_string@DU?$char_traits@D@std@@V?$allocator@D@2@@2@XZ ; std::numpunct<char>::do_grouping
PUBLIC	?do_falsename@?$numpunct@D@std@@MEBA?AV?$basic_string@DU?$char_traits@D@std@@V?$allocator@D@2@@2@XZ ; std::numpunct<char>::do_falsename
PUBLIC	?do_truename@?$numpunct@D@std@@MEBA?AV?$basic_string@DU?$char_traits@D@std@@V?$allocator@D@2@@2@XZ ; std::numpunct<char>::do_truename
PUBLIC	?_Large_mode_engaged@?$_String_val@U?$_Simple_types@D@std@@@std@@QEBA_NXZ ; std::_String_val<std::_Simple_types<char> >::_Large_mode_engaged
PUBLIC	?_Myptr@?$_String_val@U?$_Simple_types@D@std@@@std@@QEAAPEADXZ ; std::_String_val<std::_Simple_types<char> >::_Myptr
PUBLIC	??D?$_String_view_iterator@U?$char_traits@D@std@@@std@@QEBAAEBDXZ ; std::_String_view_iterator<std::char_traits<char> >::operator*
PUBLIC	??E?$_String_view_iterator@U?$char_traits@D@std@@@std@@QEAAAEAV01@XZ ; std::_String_view_iterator<std::char_traits<char> >::operator++
PUBLIC	??H?$_String_view_iterator@U?$char_traits@D@std@@@std@@QEBA?AV01@_J@Z ; std::_String_view_iterator<std::char_traits<char> >::operator+
PUBLIC	??8?$_String_view_iterator@U?$char_traits@D@std@@@std@@QEBA_NAEBV01@@Z ; std::_String_view_iterator<std::char_traits<char> >::operator==
PUBLIC	?_Units_in_next_character@?$_Fmt_codec@D$0A@@std@@QEBAHQEBD0@Z ; std::_Fmt_codec<char,0>::_Units_in_next_character
PUBLIC	main
PUBLIC	?length@?$_Narrow_char_traits@DH@std@@SA_KQEBD@Z ; std::_Narrow_char_traits<char,int>::length
PUBLIC	??0?$basic_string_view@DU?$char_traits@D@std@@@std@@QEAA@QEBD@Z ; std::basic_string_view<char,std::char_traits<char> >::basic_string_view<char,std::char_traits<char> >
PUBLIC	??0value@yw@@QEAA@XZ				; yw::value::value
PUBLIC	??Bvalue@yw@@QEHAA$$QEANXZ			; yw::value::operator double &&
PUBLIC	??Bvalue@yw@@QEGAAAEANXZ			; yw::value::operator double &
PUBLIC	?_Is_grapheme_extend@__p2286@std@@YA_N_U@Z	; std::__p2286::_Is_grapheme_extend
PUBLIC	?_Is_printable@__p2286@std@@YA_N_U@Z		; std::__p2286::_Is_printable
PUBLIC	?__autoclassinit2@_Measure_string_prefix_iterator_legacy@__p2286@std@@QEAAX_K@Z ; std::__p2286::_Measure_string_prefix_iterator_legacy::__autoclassinit2
PUBLIC	?_Position@_Measure_string_prefix_iterator_legacy@__p2286@std@@QEBAPEBDXZ ; std::__p2286::_Measure_string_prefix_iterator_legacy::_Position
PUBLIC	??D_Measure_string_prefix_iterator_legacy@__p2286@std@@QEBAHXZ ; std::__p2286::_Measure_string_prefix_iterator_legacy::operator*
PUBLIC	??E_Measure_string_prefix_iterator_legacy@__p2286@std@@QEAAAEAV012@XZ ; std::__p2286::_Measure_string_prefix_iterator_legacy::operator++
PUBLIC	??0_Measure_string_prefix_iterator_legacy@__p2286@std@@QEAA@PEBD0@Z ; std::__p2286::_Measure_string_prefix_iterator_legacy::_Measure_string_prefix_iterator_legacy
PUBLIC	??8_Measure_string_prefix_iterator_legacy@__p2286@std@@QEBA_NUdefault_sentinel_t@2@@Z ; std::__p2286::_Measure_string_prefix_iterator_legacy::operator==
PUBLIC	?_Update_units@_Measure_string_prefix_iterator_legacy@__p2286@std@@AEAAXXZ ; std::__p2286::_Measure_string_prefix_iterator_legacy::_Update_units
PUBLIC	?__autoclassinit2@?$_String_view_iterator@U?$char_traits@D@std@@@std@@QEAAX_K@Z ; std::_String_view_iterator<std::char_traits<char> >::__autoclassinit2
PUBLIC	?_Count_separators@__p2286@std@@YAH_KV?$basic_string_view@DU?$char_traits@D@std@@@2@@Z ; std::__p2286::_Count_separators
PUBLIC	?_Buffer_to_uppercase@__p2286@std@@YAXPEADPEBD@Z ; std::__p2286::_Buffer_to_uppercase
PUBLIC	?_Limit@_Fmt_buffer_traits@std@@QEAA_K_K@Z	; std::_Fmt_buffer_traits::_Limit
PUBLIC	??0_Fmt_buffer_traits@std@@QEAA@_J@Z		; std::_Fmt_buffer_traits::_Fmt_buffer_traits
PUBLIC	?_Get@_Lazy_locale@std@@QEBA?AVlocale@2@XZ	; std::_Lazy_locale::_Get
PUBLIC	??0_Format_arg_index@std@@QEAA@XZ		; std::_Format_arg_index::_Format_arg_index
PUBLIC	?_Type@_Format_arg_index@std@@QEAAXW4_Basic_format_arg_type@2@@Z ; std::_Format_arg_index::_Type
PUBLIC	?_Type@_Format_arg_index@std@@QEBA?AW4_Basic_format_arg_type@2@XZ ; std::_Format_arg_index::_Type
PUBLIC	??0_Format_arg_index@std@@QEAA@_K@Z		; std::_Format_arg_index::_Format_arg_index
PUBLIC	??0?$_Fmt_codec_base@$0A@@std@@IEAA@XZ		; std::_Fmt_codec_base<0>::_Fmt_codec_base<0>
PUBLIC	?_Double_byte_encoding_code_units_in_next_character@?$_Fmt_codec_base@$0A@@std@@IEBAHQEBD0@Z ; std::_Fmt_codec_base<0>::_Double_byte_encoding_code_units_in_next_character
PUBLIC	?_You_see_this_error_because_arg_id_is_out_of_range@std@@YAXXZ ; std::_You_see_this_error_because_arg_id_is_out_of_range
PUBLIC	?_Decode_utf@std@@YA?AU?$_Decode_result@D@1@PEBD0AEA_U@Z ; std::_Decode_utf
PUBLIC	?_Is_arithmetic_fmt_type@std@@YA_NW4_Basic_format_arg_type@1@@Z ; std::_Is_arithmetic_fmt_type
PUBLIC	?_Is_integral_fmt_type@std@@YA_NW4_Basic_format_arg_type@1@@Z ; std::_Is_integral_fmt_type
PUBLIC	??_Gformat_error@std@@UEAAPEAXI@Z		; std::format_error::`scalar deleting destructor'
PUBLIC	??0format_error@std@@QEAA@AEBV01@@Z		; std::format_error::format_error
PUBLIC	??1format_error@std@@UEAA@XZ			; std::format_error::~format_error
PUBLIC	??0format_error@std@@QEAA@PEBD@Z		; std::format_error::format_error
PUBLIC	?_Throw_format_error@std@@YAXQEBD@Z		; std::_Throw_format_error
PUBLIC	?_Getfacet@locale@std@@QEBAPEBVfacet@12@_K@Z	; std::locale::_Getfacet
PUBLIC	?_C_str@locale@std@@QEBAPEBDXZ			; std::locale::_C_str
PUBLIC	??1locale@std@@QEAA@XZ				; std::locale::~locale
PUBLIC	??0locale@std@@QEAA@XZ				; std::locale::locale
PUBLIC	??0locale@std@@QEAA@AEBV01@@Z			; std::locale::locale
PUBLIC	??0bad_cast@std@@QEAA@AEBV01@@Z			; std::bad_cast::bad_cast
PUBLIC	?_Throw_bad_cast@std@@YAXXZ			; std::_Throw_bad_cast
PUBLIC	??1bad_cast@std@@UEAA@XZ			; std::bad_cast::~bad_cast
PUBLIC	??_Gbad_cast@std@@UEAAPEAXI@Z			; std::bad_cast::`scalar deleting destructor'
PUBLIC	??0bad_cast@std@@QEAA@XZ			; std::bad_cast::bad_cast
PUBLIC	??1_Init_once_completer@std@@QEAA@XZ		; std::_Init_once_completer::~_Init_once_completer
PUBLIC	??0runtime_error@std@@QEAA@AEBV01@@Z		; std::runtime_error::runtime_error
PUBLIC	??1runtime_error@std@@UEAA@XZ			; std::runtime_error::~runtime_error
PUBLIC	??_Gruntime_error@std@@UEAAPEAXI@Z		; std::runtime_error::`scalar deleting destructor'
PUBLIC	??0runtime_error@std@@QEAA@PEBD@Z		; std::runtime_error::runtime_error
PUBLIC	?_Xlen_string@std@@YAXXZ			; std::_Xlen_string
PUBLIC	??__Ksv@string_view_literals@literals@std@@YA?AV?$basic_string_view@DU?$char_traits@D@std@@@3@PEBD_K@Z ; std::literals::string_view_literals::operator "" sv
PUBLIC	?_Release@_Fake_proxy_ptr_impl@std@@QEAAXXZ	; std::_Fake_proxy_ptr_impl::_Release
PUBLIC	??0_Fake_proxy_ptr_impl@std@@QEAA@AEBU_Fake_allocator@1@AEBU_Container_base0@1@@Z ; std::_Fake_proxy_ptr_impl::_Fake_proxy_ptr_impl
PUBLIC	?_Adopt@_Iterator_base0@std@@QEAAXPEBX@Z	; std::_Iterator_base0::_Adopt
PUBLIC	?_Alloc_proxy@_Container_base0@std@@QEAAXAEBU_Fake_allocator@2@@Z ; std::_Container_base0::_Alloc_proxy
PUBLIC	?_Swap_proxy_and_iterators@_Container_base0@std@@QEAAXAEAU12@@Z ; std::_Container_base0::_Swap_proxy_and_iterators
PUBLIC	?_Orphan_all@_Container_base0@std@@QEAAXXZ	; std::_Container_base0::_Orphan_all
PUBLIC	?_Adjust_manually_vector_aligned@std@@YAXAEAPEAXAEA_K@Z ; std::_Adjust_manually_vector_aligned
PUBLIC	?_Allocate@_Default_allocate_traits@std@@SAPEAX_K@Z ; std::_Default_allocate_traits::_Allocate
PUBLIC	??0bad_alloc@std@@QEAA@AEBV01@@Z		; std::bad_alloc::bad_alloc
PUBLIC	??0bad_array_new_length@std@@QEAA@AEBV01@@Z	; std::bad_array_new_length::bad_array_new_length
PUBLIC	?_Throw_bad_array_new_length@std@@YAXXZ		; std::_Throw_bad_array_new_length
PUBLIC	??1bad_array_new_length@std@@UEAA@XZ		; std::bad_array_new_length::~bad_array_new_length
PUBLIC	??_Gbad_array_new_length@std@@UEAAPEAXI@Z	; std::bad_array_new_length::`scalar deleting destructor'
PUBLIC	??0bad_array_new_length@std@@QEAA@XZ		; std::bad_array_new_length::bad_array_new_length
PUBLIC	??1bad_alloc@std@@UEAA@XZ			; std::bad_alloc::~bad_alloc
PUBLIC	??_Gbad_alloc@std@@UEAAPEAXI@Z			; std::bad_alloc::`scalar deleting destructor'
PUBLIC	??0bad_alloc@std@@AEAA@QEBD@Z			; std::bad_alloc::bad_alloc
PUBLIC	??_Gexception@std@@UEAAPEAXI@Z			; std::exception::`scalar deleting destructor'
PUBLIC	?what@exception@std@@UEBAPEBDXZ			; std::exception::what
PUBLIC	??1exception@std@@UEAA@XZ			; std::exception::~exception
PUBLIC	??0exception@std@@QEAA@AEBV01@@Z		; std::exception::exception
